
Smart_Home_master.elf:     file format elf32-avr

Sections:
Idx Name          Size      VMA       LMA       File off  Algn
  0 .text         00002616  00000000  00000000  00000094  2**1
                  CONTENTS, ALLOC, LOAD, READONLY, CODE
  1 .data         000002ce  00800060  00002616  000026aa  2**0
                  CONTENTS, ALLOC, LOAD, DATA
  2 .bss          00000010  0080032e  0080032e  00002978  2**0
                  ALLOC
  3 .comment      00000030  00000000  00000000  00002978  2**0
                  CONTENTS, READONLY
  4 .note.gnu.avr.deviceinfo 0000003c  00000000  00000000  000029a8  2**2
                  CONTENTS, READONLY
  5 .debug_aranges 000001e0  00000000  00000000  000029e4  2**0
                  CONTENTS, READONLY, DEBUGGING
  6 .debug_info   00005d22  00000000  00000000  00002bc4  2**0
                  CONTENTS, READONLY, DEBUGGING
  7 .debug_abbrev 00000c01  00000000  00000000  000088e6  2**0
                  CONTENTS, READONLY, DEBUGGING
  8 .debug_line   000024d8  00000000  00000000  000094e7  2**0
                  CONTENTS, READONLY, DEBUGGING
  9 .debug_frame  00000364  00000000  00000000  0000b9c0  2**2
                  CONTENTS, READONLY, DEBUGGING
 10 .debug_str    00000729  00000000  00000000  0000bd24  2**0
                  CONTENTS, READONLY, DEBUGGING
 11 .debug_loc    000034f2  00000000  00000000  0000c44d  2**0
                  CONTENTS, READONLY, DEBUGGING
 12 .debug_ranges 00000160  00000000  00000000  0000f93f  2**0
                  CONTENTS, READONLY, DEBUGGING

Disassembly of section .text:

00000000 <__vectors>:
       0:	0c 94 de 00 	jmp	0x1bc	; 0x1bc <__ctors_end>
       4:	0c 94 fb 00 	jmp	0x1f6	; 0x1f6 <__bad_interrupt>
       8:	0c 94 fb 00 	jmp	0x1f6	; 0x1f6 <__bad_interrupt>
       c:	0c 94 fb 00 	jmp	0x1f6	; 0x1f6 <__bad_interrupt>
      10:	0c 94 fb 00 	jmp	0x1f6	; 0x1f6 <__bad_interrupt>
      14:	0c 94 fb 00 	jmp	0x1f6	; 0x1f6 <__bad_interrupt>
      18:	0c 94 fb 00 	jmp	0x1f6	; 0x1f6 <__bad_interrupt>
      1c:	0c 94 fb 00 	jmp	0x1f6	; 0x1f6 <__bad_interrupt>
      20:	0c 94 fb 00 	jmp	0x1f6	; 0x1f6 <__bad_interrupt>
      24:	0c 94 fb 00 	jmp	0x1f6	; 0x1f6 <__bad_interrupt>
      28:	0c 94 a7 12 	jmp	0x254e	; 0x254e <__vector_10>
      2c:	0c 94 fb 00 	jmp	0x1f6	; 0x1f6 <__bad_interrupt>
      30:	0c 94 fb 00 	jmp	0x1f6	; 0x1f6 <__bad_interrupt>
      34:	0c 94 fb 00 	jmp	0x1f6	; 0x1f6 <__bad_interrupt>
      38:	0c 94 fb 00 	jmp	0x1f6	; 0x1f6 <__bad_interrupt>
      3c:	0c 94 fb 00 	jmp	0x1f6	; 0x1f6 <__bad_interrupt>
      40:	0c 94 fb 00 	jmp	0x1f6	; 0x1f6 <__bad_interrupt>
      44:	0c 94 fb 00 	jmp	0x1f6	; 0x1f6 <__bad_interrupt>
      48:	0c 94 fb 00 	jmp	0x1f6	; 0x1f6 <__bad_interrupt>
      4c:	0c 94 fb 00 	jmp	0x1f6	; 0x1f6 <__bad_interrupt>
      50:	0c 94 fb 00 	jmp	0x1f6	; 0x1f6 <__bad_interrupt>
      54:	09 01       	movw	r0, r18
      56:	22 01       	movw	r4, r4
      58:	3b 01       	movw	r6, r22
      5a:	54 01       	movw	r10, r8
      5c:	6c 01       	movw	r12, r24
      5e:	6c 01       	movw	r12, r24
      60:	6c 01       	movw	r12, r24
      62:	6c 01       	movw	r12, r24
      64:	6c 01       	movw	r12, r24
      66:	6c 01       	movw	r12, r24
      68:	6c 01       	movw	r12, r24
      6a:	6c 01       	movw	r12, r24
      6c:	6c 01       	movw	r12, r24
      6e:	6c 01       	movw	r12, r24
      70:	6c 01       	movw	r12, r24
      72:	6c 01       	movw	r12, r24
      74:	6c 01       	movw	r12, r24
      76:	6c 01       	movw	r12, r24
      78:	6c 01       	movw	r12, r24
      7a:	6c 01       	movw	r12, r24
      7c:	6c 01       	movw	r12, r24
      7e:	6c 01       	movw	r12, r24
      80:	6c 01       	movw	r12, r24
      82:	6c 01       	movw	r12, r24
      84:	6c 01       	movw	r12, r24
      86:	6c 01       	movw	r12, r24
      88:	6c 01       	movw	r12, r24
      8a:	6c 01       	movw	r12, r24
      8c:	6c 01       	movw	r12, r24
      8e:	6c 01       	movw	r12, r24
      90:	6c 01       	movw	r12, r24
      92:	6c 01       	movw	r12, r24
      94:	09 01       	movw	r0, r18
      96:	22 01       	movw	r4, r4
      98:	3b 01       	movw	r6, r22
      9a:	54 01       	movw	r10, r8
      9c:	79 01       	movw	r14, r18
      9e:	92 01       	movw	r18, r4
      a0:	ab 01       	movw	r20, r22
      a2:	c4 01       	movw	r24, r8
      a4:	dc 01       	movw	r26, r24
      a6:	dc 01       	movw	r26, r24
      a8:	dc 01       	movw	r26, r24
      aa:	dc 01       	movw	r26, r24
      ac:	dc 01       	movw	r26, r24
      ae:	dc 01       	movw	r26, r24
      b0:	dc 01       	movw	r26, r24
      b2:	dc 01       	movw	r26, r24
      b4:	dc 01       	movw	r26, r24
      b6:	dc 01       	movw	r26, r24
      b8:	dc 01       	movw	r26, r24
      ba:	dc 01       	movw	r26, r24
      bc:	dc 01       	movw	r26, r24
      be:	dc 01       	movw	r26, r24
      c0:	dc 01       	movw	r26, r24
      c2:	dc 01       	movw	r26, r24
      c4:	dc 01       	movw	r26, r24
      c6:	dc 01       	movw	r26, r24
      c8:	dc 01       	movw	r26, r24
      ca:	dc 01       	movw	r26, r24
      cc:	dc 01       	movw	r26, r24
      ce:	dc 01       	movw	r26, r24
      d0:	dc 01       	movw	r26, r24
      d2:	dc 01       	movw	r26, r24
      d4:	dc 01       	movw	r26, r24
      d6:	dc 01       	movw	r26, r24
      d8:	dc 01       	movw	r26, r24
      da:	dc 01       	movw	r26, r24
      dc:	79 01       	movw	r14, r18
      de:	92 01       	movw	r18, r4
      e0:	ab 01       	movw	r20, r22
      e2:	c4 01       	movw	r24, r8
      e4:	e9 01       	movw	r28, r18
      e6:	fd 01       	movw	r30, r26
      e8:	11 02       	muls	r17, r17
      ea:	25 02       	muls	r18, r21
      ec:	39 02       	muls	r19, r25
      ee:	39 02       	muls	r19, r25
      f0:	39 02       	muls	r19, r25
      f2:	39 02       	muls	r19, r25
      f4:	39 02       	muls	r19, r25
      f6:	39 02       	muls	r19, r25
      f8:	39 02       	muls	r19, r25
      fa:	39 02       	muls	r19, r25
      fc:	39 02       	muls	r19, r25
      fe:	39 02       	muls	r19, r25
     100:	39 02       	muls	r19, r25
     102:	39 02       	muls	r19, r25
     104:	39 02       	muls	r19, r25
     106:	39 02       	muls	r19, r25
     108:	39 02       	muls	r19, r25
     10a:	39 02       	muls	r19, r25
     10c:	39 02       	muls	r19, r25
     10e:	39 02       	muls	r19, r25
     110:	39 02       	muls	r19, r25
     112:	39 02       	muls	r19, r25
     114:	39 02       	muls	r19, r25
     116:	39 02       	muls	r19, r25
     118:	39 02       	muls	r19, r25
     11a:	39 02       	muls	r19, r25
     11c:	39 02       	muls	r19, r25
     11e:	39 02       	muls	r19, r25
     120:	39 02       	muls	r19, r25
     122:	39 02       	muls	r19, r25
     124:	e9 01       	movw	r28, r18
     126:	fd 01       	movw	r30, r26
     128:	11 02       	muls	r17, r17
     12a:	25 02       	muls	r18, r21
     12c:	47 02       	muls	r20, r23
     12e:	60 02       	muls	r22, r16
     130:	79 02       	muls	r23, r25
     132:	92 02       	muls	r25, r18
     134:	aa 02       	muls	r26, r26
     136:	aa 02       	muls	r26, r26
     138:	aa 02       	muls	r26, r26
     13a:	aa 02       	muls	r26, r26
     13c:	aa 02       	muls	r26, r26
     13e:	aa 02       	muls	r26, r26
     140:	aa 02       	muls	r26, r26
     142:	aa 02       	muls	r26, r26
     144:	aa 02       	muls	r26, r26
     146:	aa 02       	muls	r26, r26
     148:	aa 02       	muls	r26, r26
     14a:	aa 02       	muls	r26, r26
     14c:	aa 02       	muls	r26, r26
     14e:	aa 02       	muls	r26, r26
     150:	aa 02       	muls	r26, r26
     152:	aa 02       	muls	r26, r26
     154:	aa 02       	muls	r26, r26
     156:	aa 02       	muls	r26, r26
     158:	aa 02       	muls	r26, r26
     15a:	aa 02       	muls	r26, r26
     15c:	aa 02       	muls	r26, r26
     15e:	aa 02       	muls	r26, r26
     160:	aa 02       	muls	r26, r26
     162:	aa 02       	muls	r26, r26
     164:	aa 02       	muls	r26, r26
     166:	aa 02       	muls	r26, r26
     168:	aa 02       	muls	r26, r26
     16a:	aa 02       	muls	r26, r26
     16c:	47 02       	muls	r20, r23
     16e:	60 02       	muls	r22, r16
     170:	79 02       	muls	r23, r25
     172:	92 02       	muls	r25, r18
     174:	b8 02       	muls	r27, r24
     176:	bf 02       	muls	r27, r31
     178:	c6 02       	muls	r28, r22
     17a:	cd 02       	muls	r28, r29
     17c:	d3 02       	muls	r29, r19
     17e:	d3 02       	muls	r29, r19
     180:	d3 02       	muls	r29, r19
     182:	d3 02       	muls	r29, r19
     184:	d3 02       	muls	r29, r19
     186:	d3 02       	muls	r29, r19
     188:	d3 02       	muls	r29, r19
     18a:	d3 02       	muls	r29, r19
     18c:	d3 02       	muls	r29, r19
     18e:	d3 02       	muls	r29, r19
     190:	d3 02       	muls	r29, r19
     192:	d3 02       	muls	r29, r19
     194:	d3 02       	muls	r29, r19
     196:	d3 02       	muls	r29, r19
     198:	d3 02       	muls	r29, r19
     19a:	d3 02       	muls	r29, r19
     19c:	d3 02       	muls	r29, r19
     19e:	d3 02       	muls	r29, r19
     1a0:	d3 02       	muls	r29, r19
     1a2:	d3 02       	muls	r29, r19
     1a4:	d3 02       	muls	r29, r19
     1a6:	d3 02       	muls	r29, r19
     1a8:	d3 02       	muls	r29, r19
     1aa:	d3 02       	muls	r29, r19
     1ac:	d3 02       	muls	r29, r19
     1ae:	d3 02       	muls	r29, r19
     1b0:	d3 02       	muls	r29, r19
     1b2:	d3 02       	muls	r29, r19
     1b4:	b8 02       	muls	r27, r24
     1b6:	bf 02       	muls	r27, r31
     1b8:	c6 02       	muls	r28, r22
     1ba:	cd 02       	muls	r28, r29

000001bc <__ctors_end>:
     1bc:	11 24       	eor	r1, r1
     1be:	1f be       	out	0x3f, r1	; 63
     1c0:	cf e5       	ldi	r28, 0x5F	; 95
     1c2:	d8 e0       	ldi	r29, 0x08	; 8
     1c4:	de bf       	out	0x3e, r29	; 62
     1c6:	cd bf       	out	0x3d, r28	; 61

000001c8 <__do_copy_data>:
     1c8:	13 e0       	ldi	r17, 0x03	; 3
     1ca:	a0 e6       	ldi	r26, 0x60	; 96
     1cc:	b0 e0       	ldi	r27, 0x00	; 0
     1ce:	e6 e1       	ldi	r30, 0x16	; 22
     1d0:	f6 e2       	ldi	r31, 0x26	; 38
     1d2:	02 c0       	rjmp	.+4      	; 0x1d8 <__do_copy_data+0x10>
     1d4:	05 90       	lpm	r0, Z+
     1d6:	0d 92       	st	X+, r0
     1d8:	ae 32       	cpi	r26, 0x2E	; 46
     1da:	b1 07       	cpc	r27, r17
     1dc:	d9 f7       	brne	.-10     	; 0x1d4 <__do_copy_data+0xc>

000001de <__do_clear_bss>:
     1de:	23 e0       	ldi	r18, 0x03	; 3
     1e0:	ae e2       	ldi	r26, 0x2E	; 46
     1e2:	b3 e0       	ldi	r27, 0x03	; 3
     1e4:	01 c0       	rjmp	.+2      	; 0x1e8 <.do_clear_bss_start>

000001e6 <.do_clear_bss_loop>:
     1e6:	1d 92       	st	X+, r1

000001e8 <.do_clear_bss_start>:
     1e8:	ae 33       	cpi	r26, 0x3E	; 62
     1ea:	b2 07       	cpc	r27, r18
     1ec:	e1 f7       	brne	.-8      	; 0x1e6 <.do_clear_bss_loop>
     1ee:	0e 94 cb 04 	call	0x996	; 0x996 <main>
     1f2:	0c 94 09 13 	jmp	0x2612	; 0x2612 <_exit>

000001f6 <__bad_interrupt>:
     1f6:	0c 94 00 00 	jmp	0	; 0x0 <__vectors>

000001fa <DIO_set_pin_dir>:
		PORTC|=value;
		break;
		case 'D':
		case 'd':
		PORTD&=0xf0;
		PORTD|=value;
     1fa:	90 e0       	ldi	r25, 0x00	; 0
     1fc:	fc 01       	movw	r30, r24
     1fe:	e1 54       	subi	r30, 0x41	; 65
     200:	f1 09       	sbc	r31, r1
     202:	e4 32       	cpi	r30, 0x24	; 36
     204:	f1 05       	cpc	r31, r1
     206:	08 f0       	brcs	.+2      	; 0x20a <DIO_set_pin_dir+0x10>
     208:	67 c0       	rjmp	.+206    	; 0x2d8 <DIO_set_pin_dir+0xde>
     20a:	e6 5d       	subi	r30, 0xD6	; 214
     20c:	ff 4f       	sbci	r31, 0xFF	; 255
     20e:	0c 94 03 13 	jmp	0x2606	; 0x2606 <__tablejump2__>
     212:	41 30       	cpi	r20, 0x01	; 1
     214:	59 f4       	brne	.+22     	; 0x22c <DIO_set_pin_dir+0x32>
     216:	2a b3       	in	r18, 0x1a	; 26
     218:	81 e0       	ldi	r24, 0x01	; 1
     21a:	90 e0       	ldi	r25, 0x00	; 0
     21c:	02 c0       	rjmp	.+4      	; 0x222 <DIO_set_pin_dir+0x28>
     21e:	88 0f       	add	r24, r24
     220:	99 1f       	adc	r25, r25
     222:	6a 95       	dec	r22
     224:	e2 f7       	brpl	.-8      	; 0x21e <DIO_set_pin_dir+0x24>
     226:	82 2b       	or	r24, r18
     228:	8a bb       	out	0x1a, r24	; 26
     22a:	08 95       	ret
     22c:	2a b3       	in	r18, 0x1a	; 26
     22e:	81 e0       	ldi	r24, 0x01	; 1
     230:	90 e0       	ldi	r25, 0x00	; 0
     232:	02 c0       	rjmp	.+4      	; 0x238 <DIO_set_pin_dir+0x3e>
     234:	88 0f       	add	r24, r24
     236:	99 1f       	adc	r25, r25
     238:	6a 95       	dec	r22
     23a:	e2 f7       	brpl	.-8      	; 0x234 <DIO_set_pin_dir+0x3a>
     23c:	80 95       	com	r24
     23e:	82 23       	and	r24, r18
     240:	8a bb       	out	0x1a, r24	; 26
     242:	08 95       	ret
     244:	41 30       	cpi	r20, 0x01	; 1
     246:	59 f4       	brne	.+22     	; 0x25e <DIO_set_pin_dir+0x64>
     248:	27 b3       	in	r18, 0x17	; 23
     24a:	81 e0       	ldi	r24, 0x01	; 1
     24c:	90 e0       	ldi	r25, 0x00	; 0
     24e:	02 c0       	rjmp	.+4      	; 0x254 <DIO_set_pin_dir+0x5a>
     250:	88 0f       	add	r24, r24
     252:	99 1f       	adc	r25, r25
     254:	6a 95       	dec	r22
     256:	e2 f7       	brpl	.-8      	; 0x250 <DIO_set_pin_dir+0x56>
     258:	82 2b       	or	r24, r18
     25a:	87 bb       	out	0x17, r24	; 23
     25c:	08 95       	ret
     25e:	27 b3       	in	r18, 0x17	; 23
     260:	81 e0       	ldi	r24, 0x01	; 1
     262:	90 e0       	ldi	r25, 0x00	; 0
     264:	02 c0       	rjmp	.+4      	; 0x26a <DIO_set_pin_dir+0x70>
     266:	88 0f       	add	r24, r24
     268:	99 1f       	adc	r25, r25
     26a:	6a 95       	dec	r22
     26c:	e2 f7       	brpl	.-8      	; 0x266 <DIO_set_pin_dir+0x6c>
     26e:	80 95       	com	r24
     270:	82 23       	and	r24, r18
     272:	87 bb       	out	0x17, r24	; 23
     274:	08 95       	ret
     276:	41 30       	cpi	r20, 0x01	; 1
     278:	59 f4       	brne	.+22     	; 0x290 <DIO_set_pin_dir+0x96>
     27a:	24 b3       	in	r18, 0x14	; 20
     27c:	81 e0       	ldi	r24, 0x01	; 1
     27e:	90 e0       	ldi	r25, 0x00	; 0
     280:	02 c0       	rjmp	.+4      	; 0x286 <DIO_set_pin_dir+0x8c>
     282:	88 0f       	add	r24, r24
     284:	99 1f       	adc	r25, r25
     286:	6a 95       	dec	r22
     288:	e2 f7       	brpl	.-8      	; 0x282 <DIO_set_pin_dir+0x88>
     28a:	82 2b       	or	r24, r18
     28c:	84 bb       	out	0x14, r24	; 20
     28e:	08 95       	ret
     290:	24 b3       	in	r18, 0x14	; 20
     292:	81 e0       	ldi	r24, 0x01	; 1
     294:	90 e0       	ldi	r25, 0x00	; 0
     296:	02 c0       	rjmp	.+4      	; 0x29c <DIO_set_pin_dir+0xa2>
     298:	88 0f       	add	r24, r24
     29a:	99 1f       	adc	r25, r25
     29c:	6a 95       	dec	r22
     29e:	e2 f7       	brpl	.-8      	; 0x298 <DIO_set_pin_dir+0x9e>
     2a0:	80 95       	com	r24
     2a2:	82 23       	and	r24, r18
     2a4:	84 bb       	out	0x14, r24	; 20
     2a6:	08 95       	ret
     2a8:	41 30       	cpi	r20, 0x01	; 1
     2aa:	59 f4       	brne	.+22     	; 0x2c2 <DIO_set_pin_dir+0xc8>
     2ac:	21 b3       	in	r18, 0x11	; 17
     2ae:	81 e0       	ldi	r24, 0x01	; 1
     2b0:	90 e0       	ldi	r25, 0x00	; 0
     2b2:	02 c0       	rjmp	.+4      	; 0x2b8 <DIO_set_pin_dir+0xbe>
     2b4:	88 0f       	add	r24, r24
     2b6:	99 1f       	adc	r25, r25
     2b8:	6a 95       	dec	r22
     2ba:	e2 f7       	brpl	.-8      	; 0x2b4 <DIO_set_pin_dir+0xba>
     2bc:	82 2b       	or	r24, r18
     2be:	81 bb       	out	0x11, r24	; 17
     2c0:	08 95       	ret
     2c2:	21 b3       	in	r18, 0x11	; 17
     2c4:	81 e0       	ldi	r24, 0x01	; 1
     2c6:	90 e0       	ldi	r25, 0x00	; 0
     2c8:	02 c0       	rjmp	.+4      	; 0x2ce <DIO_set_pin_dir+0xd4>
     2ca:	88 0f       	add	r24, r24
     2cc:	99 1f       	adc	r25, r25
     2ce:	6a 95       	dec	r22
     2d0:	e2 f7       	brpl	.-8      	; 0x2ca <DIO_set_pin_dir+0xd0>
     2d2:	80 95       	com	r24
     2d4:	82 23       	and	r24, r18
     2d6:	81 bb       	out	0x11, r24	; 17
     2d8:	08 95       	ret

000002da <DIO_write_pin>:
     2da:	90 e0       	ldi	r25, 0x00	; 0
     2dc:	fc 01       	movw	r30, r24
     2de:	e1 54       	subi	r30, 0x41	; 65
     2e0:	f1 09       	sbc	r31, r1
     2e2:	e4 32       	cpi	r30, 0x24	; 36
     2e4:	f1 05       	cpc	r31, r1
     2e6:	08 f0       	brcs	.+2      	; 0x2ea <DIO_write_pin+0x10>
     2e8:	67 c0       	rjmp	.+206    	; 0x3b8 <DIO_write_pin+0xde>
     2ea:	e2 5b       	subi	r30, 0xB2	; 178
     2ec:	ff 4f       	sbci	r31, 0xFF	; 255
     2ee:	0c 94 03 13 	jmp	0x2606	; 0x2606 <__tablejump2__>
     2f2:	41 30       	cpi	r20, 0x01	; 1
     2f4:	59 f4       	brne	.+22     	; 0x30c <DIO_write_pin+0x32>
     2f6:	2b b3       	in	r18, 0x1b	; 27
     2f8:	81 e0       	ldi	r24, 0x01	; 1
     2fa:	90 e0       	ldi	r25, 0x00	; 0
     2fc:	02 c0       	rjmp	.+4      	; 0x302 <DIO_write_pin+0x28>
     2fe:	88 0f       	add	r24, r24
     300:	99 1f       	adc	r25, r25
     302:	6a 95       	dec	r22
     304:	e2 f7       	brpl	.-8      	; 0x2fe <DIO_write_pin+0x24>
     306:	82 2b       	or	r24, r18
     308:	8b bb       	out	0x1b, r24	; 27
     30a:	08 95       	ret
     30c:	2b b3       	in	r18, 0x1b	; 27
     30e:	81 e0       	ldi	r24, 0x01	; 1
     310:	90 e0       	ldi	r25, 0x00	; 0
     312:	02 c0       	rjmp	.+4      	; 0x318 <DIO_write_pin+0x3e>
     314:	88 0f       	add	r24, r24
     316:	99 1f       	adc	r25, r25
     318:	6a 95       	dec	r22
     31a:	e2 f7       	brpl	.-8      	; 0x314 <DIO_write_pin+0x3a>
     31c:	80 95       	com	r24
     31e:	82 23       	and	r24, r18
     320:	8b bb       	out	0x1b, r24	; 27
     322:	08 95       	ret
     324:	41 30       	cpi	r20, 0x01	; 1
     326:	59 f4       	brne	.+22     	; 0x33e <DIO_write_pin+0x64>
     328:	28 b3       	in	r18, 0x18	; 24
     32a:	81 e0       	ldi	r24, 0x01	; 1
     32c:	90 e0       	ldi	r25, 0x00	; 0
     32e:	02 c0       	rjmp	.+4      	; 0x334 <DIO_write_pin+0x5a>
     330:	88 0f       	add	r24, r24
     332:	99 1f       	adc	r25, r25
     334:	6a 95       	dec	r22
     336:	e2 f7       	brpl	.-8      	; 0x330 <DIO_write_pin+0x56>
     338:	82 2b       	or	r24, r18
     33a:	88 bb       	out	0x18, r24	; 24
     33c:	08 95       	ret
     33e:	28 b3       	in	r18, 0x18	; 24
     340:	81 e0       	ldi	r24, 0x01	; 1
     342:	90 e0       	ldi	r25, 0x00	; 0
     344:	02 c0       	rjmp	.+4      	; 0x34a <DIO_write_pin+0x70>
     346:	88 0f       	add	r24, r24
     348:	99 1f       	adc	r25, r25
     34a:	6a 95       	dec	r22
     34c:	e2 f7       	brpl	.-8      	; 0x346 <DIO_write_pin+0x6c>
     34e:	80 95       	com	r24
     350:	82 23       	and	r24, r18
     352:	88 bb       	out	0x18, r24	; 24
     354:	08 95       	ret
     356:	41 30       	cpi	r20, 0x01	; 1
     358:	59 f4       	brne	.+22     	; 0x370 <DIO_write_pin+0x96>
     35a:	25 b3       	in	r18, 0x15	; 21
     35c:	81 e0       	ldi	r24, 0x01	; 1
     35e:	90 e0       	ldi	r25, 0x00	; 0
     360:	02 c0       	rjmp	.+4      	; 0x366 <DIO_write_pin+0x8c>
     362:	88 0f       	add	r24, r24
     364:	99 1f       	adc	r25, r25
     366:	6a 95       	dec	r22
     368:	e2 f7       	brpl	.-8      	; 0x362 <DIO_write_pin+0x88>
     36a:	82 2b       	or	r24, r18
     36c:	85 bb       	out	0x15, r24	; 21
     36e:	08 95       	ret
     370:	25 b3       	in	r18, 0x15	; 21
     372:	81 e0       	ldi	r24, 0x01	; 1
     374:	90 e0       	ldi	r25, 0x00	; 0
     376:	02 c0       	rjmp	.+4      	; 0x37c <DIO_write_pin+0xa2>
     378:	88 0f       	add	r24, r24
     37a:	99 1f       	adc	r25, r25
     37c:	6a 95       	dec	r22
     37e:	e2 f7       	brpl	.-8      	; 0x378 <DIO_write_pin+0x9e>
     380:	80 95       	com	r24
     382:	82 23       	and	r24, r18
     384:	85 bb       	out	0x15, r24	; 21
     386:	08 95       	ret
     388:	41 30       	cpi	r20, 0x01	; 1
     38a:	59 f4       	brne	.+22     	; 0x3a2 <DIO_write_pin+0xc8>
     38c:	22 b3       	in	r18, 0x12	; 18
     38e:	81 e0       	ldi	r24, 0x01	; 1
     390:	90 e0       	ldi	r25, 0x00	; 0
     392:	02 c0       	rjmp	.+4      	; 0x398 <DIO_write_pin+0xbe>
     394:	88 0f       	add	r24, r24
     396:	99 1f       	adc	r25, r25
     398:	6a 95       	dec	r22
     39a:	e2 f7       	brpl	.-8      	; 0x394 <DIO_write_pin+0xba>
     39c:	82 2b       	or	r24, r18
     39e:	82 bb       	out	0x12, r24	; 18
     3a0:	08 95       	ret
     3a2:	22 b3       	in	r18, 0x12	; 18
     3a4:	81 e0       	ldi	r24, 0x01	; 1
     3a6:	90 e0       	ldi	r25, 0x00	; 0
     3a8:	02 c0       	rjmp	.+4      	; 0x3ae <DIO_write_pin+0xd4>
     3aa:	88 0f       	add	r24, r24
     3ac:	99 1f       	adc	r25, r25
     3ae:	6a 95       	dec	r22
     3b0:	e2 f7       	brpl	.-8      	; 0x3aa <DIO_write_pin+0xd0>
     3b2:	80 95       	com	r24
     3b4:	82 23       	and	r24, r18
     3b6:	82 bb       	out	0x12, r24	; 18
     3b8:	08 95       	ret

000003ba <DIO_read_pin>:
     3ba:	90 e0       	ldi	r25, 0x00	; 0
     3bc:	fc 01       	movw	r30, r24
     3be:	e1 54       	subi	r30, 0x41	; 65
     3c0:	f1 09       	sbc	r31, r1
     3c2:	e4 32       	cpi	r30, 0x24	; 36
     3c4:	f1 05       	cpc	r31, r1
     3c6:	08 f0       	brcs	.+2      	; 0x3ca <DIO_read_pin+0x10>
     3c8:	54 c0       	rjmp	.+168    	; 0x472 <__EEPROM_REGION_LENGTH__+0x72>
     3ca:	ee 58       	subi	r30, 0x8E	; 142
     3cc:	ff 4f       	sbci	r31, 0xFF	; 255
     3ce:	0c 94 03 13 	jmp	0x2606	; 0x2606 <__tablejump2__>
     3d2:	49 b3       	in	r20, 0x19	; 25
     3d4:	81 e0       	ldi	r24, 0x01	; 1
     3d6:	90 e0       	ldi	r25, 0x00	; 0
     3d8:	9c 01       	movw	r18, r24
     3da:	06 2e       	mov	r0, r22
     3dc:	02 c0       	rjmp	.+4      	; 0x3e2 <DIO_read_pin+0x28>
     3de:	22 0f       	add	r18, r18
     3e0:	33 1f       	adc	r19, r19
     3e2:	0a 94       	dec	r0
     3e4:	e2 f7       	brpl	.-8      	; 0x3de <DIO_read_pin+0x24>
     3e6:	84 2f       	mov	r24, r20
     3e8:	90 e0       	ldi	r25, 0x00	; 0
     3ea:	82 23       	and	r24, r18
     3ec:	93 23       	and	r25, r19
     3ee:	02 c0       	rjmp	.+4      	; 0x3f4 <DIO_read_pin+0x3a>
     3f0:	95 95       	asr	r25
     3f2:	87 95       	ror	r24
     3f4:	6a 95       	dec	r22
     3f6:	e2 f7       	brpl	.-8      	; 0x3f0 <DIO_read_pin+0x36>
     3f8:	08 95       	ret
     3fa:	46 b3       	in	r20, 0x16	; 22
     3fc:	81 e0       	ldi	r24, 0x01	; 1
     3fe:	90 e0       	ldi	r25, 0x00	; 0
     400:	9c 01       	movw	r18, r24
     402:	06 2e       	mov	r0, r22
     404:	02 c0       	rjmp	.+4      	; 0x40a <__EEPROM_REGION_LENGTH__+0xa>
     406:	22 0f       	add	r18, r18
     408:	33 1f       	adc	r19, r19
     40a:	0a 94       	dec	r0
     40c:	e2 f7       	brpl	.-8      	; 0x406 <__EEPROM_REGION_LENGTH__+0x6>
     40e:	84 2f       	mov	r24, r20
     410:	90 e0       	ldi	r25, 0x00	; 0
     412:	82 23       	and	r24, r18
     414:	93 23       	and	r25, r19
     416:	02 c0       	rjmp	.+4      	; 0x41c <__EEPROM_REGION_LENGTH__+0x1c>
     418:	95 95       	asr	r25
     41a:	87 95       	ror	r24
     41c:	6a 95       	dec	r22
     41e:	e2 f7       	brpl	.-8      	; 0x418 <__EEPROM_REGION_LENGTH__+0x18>
     420:	08 95       	ret
     422:	43 b3       	in	r20, 0x13	; 19
     424:	81 e0       	ldi	r24, 0x01	; 1
     426:	90 e0       	ldi	r25, 0x00	; 0
     428:	9c 01       	movw	r18, r24
     42a:	06 2e       	mov	r0, r22
     42c:	02 c0       	rjmp	.+4      	; 0x432 <__EEPROM_REGION_LENGTH__+0x32>
     42e:	22 0f       	add	r18, r18
     430:	33 1f       	adc	r19, r19
     432:	0a 94       	dec	r0
     434:	e2 f7       	brpl	.-8      	; 0x42e <__EEPROM_REGION_LENGTH__+0x2e>
     436:	84 2f       	mov	r24, r20
     438:	90 e0       	ldi	r25, 0x00	; 0
     43a:	82 23       	and	r24, r18
     43c:	93 23       	and	r25, r19
     43e:	02 c0       	rjmp	.+4      	; 0x444 <__EEPROM_REGION_LENGTH__+0x44>
     440:	95 95       	asr	r25
     442:	87 95       	ror	r24
     444:	6a 95       	dec	r22
     446:	e2 f7       	brpl	.-8      	; 0x440 <__EEPROM_REGION_LENGTH__+0x40>
     448:	08 95       	ret
     44a:	40 b3       	in	r20, 0x10	; 16
     44c:	81 e0       	ldi	r24, 0x01	; 1
     44e:	90 e0       	ldi	r25, 0x00	; 0
     450:	9c 01       	movw	r18, r24
     452:	06 2e       	mov	r0, r22
     454:	02 c0       	rjmp	.+4      	; 0x45a <__EEPROM_REGION_LENGTH__+0x5a>
     456:	22 0f       	add	r18, r18
     458:	33 1f       	adc	r19, r19
     45a:	0a 94       	dec	r0
     45c:	e2 f7       	brpl	.-8      	; 0x456 <__EEPROM_REGION_LENGTH__+0x56>
     45e:	84 2f       	mov	r24, r20
     460:	90 e0       	ldi	r25, 0x00	; 0
     462:	82 23       	and	r24, r18
     464:	93 23       	and	r25, r19
     466:	02 c0       	rjmp	.+4      	; 0x46c <__EEPROM_REGION_LENGTH__+0x6c>
     468:	95 95       	asr	r25
     46a:	87 95       	ror	r24
     46c:	6a 95       	dec	r22
     46e:	e2 f7       	brpl	.-8      	; 0x468 <__EEPROM_REGION_LENGTH__+0x68>
     470:	08 95       	ret
     472:	80 e0       	ldi	r24, 0x00	; 0
     474:	08 95       	ret

00000476 <DIO_connect_pull_up>:
     476:	90 e0       	ldi	r25, 0x00	; 0
     478:	fc 01       	movw	r30, r24
     47a:	e1 54       	subi	r30, 0x41	; 65
     47c:	f1 09       	sbc	r31, r1
     47e:	e4 32       	cpi	r30, 0x24	; 36
     480:	f1 05       	cpc	r31, r1
     482:	08 f0       	brcs	.+2      	; 0x486 <DIO_connect_pull_up+0x10>
     484:	67 c0       	rjmp	.+206    	; 0x554 <DIO_connect_pull_up+0xde>
     486:	ea 56       	subi	r30, 0x6A	; 106
     488:	ff 4f       	sbci	r31, 0xFF	; 255
     48a:	0c 94 03 13 	jmp	0x2606	; 0x2606 <__tablejump2__>
     48e:	41 30       	cpi	r20, 0x01	; 1
     490:	59 f4       	brne	.+22     	; 0x4a8 <DIO_connect_pull_up+0x32>
     492:	2b b3       	in	r18, 0x1b	; 27
     494:	81 e0       	ldi	r24, 0x01	; 1
     496:	90 e0       	ldi	r25, 0x00	; 0
     498:	02 c0       	rjmp	.+4      	; 0x49e <DIO_connect_pull_up+0x28>
     49a:	88 0f       	add	r24, r24
     49c:	99 1f       	adc	r25, r25
     49e:	6a 95       	dec	r22
     4a0:	e2 f7       	brpl	.-8      	; 0x49a <DIO_connect_pull_up+0x24>
     4a2:	82 2b       	or	r24, r18
     4a4:	8b bb       	out	0x1b, r24	; 27
     4a6:	08 95       	ret
     4a8:	2b b3       	in	r18, 0x1b	; 27
     4aa:	81 e0       	ldi	r24, 0x01	; 1
     4ac:	90 e0       	ldi	r25, 0x00	; 0
     4ae:	02 c0       	rjmp	.+4      	; 0x4b4 <DIO_connect_pull_up+0x3e>
     4b0:	88 0f       	add	r24, r24
     4b2:	99 1f       	adc	r25, r25
     4b4:	6a 95       	dec	r22
     4b6:	e2 f7       	brpl	.-8      	; 0x4b0 <DIO_connect_pull_up+0x3a>
     4b8:	80 95       	com	r24
     4ba:	82 23       	and	r24, r18
     4bc:	8b bb       	out	0x1b, r24	; 27
     4be:	08 95       	ret
     4c0:	41 30       	cpi	r20, 0x01	; 1
     4c2:	59 f4       	brne	.+22     	; 0x4da <DIO_connect_pull_up+0x64>
     4c4:	28 b3       	in	r18, 0x18	; 24
     4c6:	81 e0       	ldi	r24, 0x01	; 1
     4c8:	90 e0       	ldi	r25, 0x00	; 0
     4ca:	02 c0       	rjmp	.+4      	; 0x4d0 <DIO_connect_pull_up+0x5a>
     4cc:	88 0f       	add	r24, r24
     4ce:	99 1f       	adc	r25, r25
     4d0:	6a 95       	dec	r22
     4d2:	e2 f7       	brpl	.-8      	; 0x4cc <DIO_connect_pull_up+0x56>
     4d4:	82 2b       	or	r24, r18
     4d6:	88 bb       	out	0x18, r24	; 24
     4d8:	08 95       	ret
     4da:	28 b3       	in	r18, 0x18	; 24
     4dc:	81 e0       	ldi	r24, 0x01	; 1
     4de:	90 e0       	ldi	r25, 0x00	; 0
     4e0:	02 c0       	rjmp	.+4      	; 0x4e6 <DIO_connect_pull_up+0x70>
     4e2:	88 0f       	add	r24, r24
     4e4:	99 1f       	adc	r25, r25
     4e6:	6a 95       	dec	r22
     4e8:	e2 f7       	brpl	.-8      	; 0x4e2 <DIO_connect_pull_up+0x6c>
     4ea:	80 95       	com	r24
     4ec:	82 23       	and	r24, r18
     4ee:	88 bb       	out	0x18, r24	; 24
     4f0:	08 95       	ret
     4f2:	41 30       	cpi	r20, 0x01	; 1
     4f4:	59 f4       	brne	.+22     	; 0x50c <DIO_connect_pull_up+0x96>
     4f6:	25 b3       	in	r18, 0x15	; 21
     4f8:	81 e0       	ldi	r24, 0x01	; 1
     4fa:	90 e0       	ldi	r25, 0x00	; 0
     4fc:	02 c0       	rjmp	.+4      	; 0x502 <DIO_connect_pull_up+0x8c>
     4fe:	88 0f       	add	r24, r24
     500:	99 1f       	adc	r25, r25
     502:	6a 95       	dec	r22
     504:	e2 f7       	brpl	.-8      	; 0x4fe <DIO_connect_pull_up+0x88>
     506:	82 2b       	or	r24, r18
     508:	85 bb       	out	0x15, r24	; 21
     50a:	08 95       	ret
     50c:	25 b3       	in	r18, 0x15	; 21
     50e:	81 e0       	ldi	r24, 0x01	; 1
     510:	90 e0       	ldi	r25, 0x00	; 0
     512:	02 c0       	rjmp	.+4      	; 0x518 <DIO_connect_pull_up+0xa2>
     514:	88 0f       	add	r24, r24
     516:	99 1f       	adc	r25, r25
     518:	6a 95       	dec	r22
     51a:	e2 f7       	brpl	.-8      	; 0x514 <DIO_connect_pull_up+0x9e>
     51c:	80 95       	com	r24
     51e:	82 23       	and	r24, r18
     520:	85 bb       	out	0x15, r24	; 21
     522:	08 95       	ret
     524:	41 30       	cpi	r20, 0x01	; 1
     526:	59 f4       	brne	.+22     	; 0x53e <DIO_connect_pull_up+0xc8>
     528:	22 b3       	in	r18, 0x12	; 18
     52a:	81 e0       	ldi	r24, 0x01	; 1
     52c:	90 e0       	ldi	r25, 0x00	; 0
     52e:	02 c0       	rjmp	.+4      	; 0x534 <DIO_connect_pull_up+0xbe>
     530:	88 0f       	add	r24, r24
     532:	99 1f       	adc	r25, r25
     534:	6a 95       	dec	r22
     536:	e2 f7       	brpl	.-8      	; 0x530 <DIO_connect_pull_up+0xba>
     538:	82 2b       	or	r24, r18
     53a:	82 bb       	out	0x12, r24	; 18
     53c:	08 95       	ret
     53e:	22 b3       	in	r18, 0x12	; 18
     540:	81 e0       	ldi	r24, 0x01	; 1
     542:	90 e0       	ldi	r25, 0x00	; 0
     544:	02 c0       	rjmp	.+4      	; 0x54a <DIO_connect_pull_up+0xd4>
     546:	88 0f       	add	r24, r24
     548:	99 1f       	adc	r25, r25
     54a:	6a 95       	dec	r22
     54c:	e2 f7       	brpl	.-8      	; 0x546 <DIO_connect_pull_up+0xd0>
     54e:	80 95       	com	r24
     550:	82 23       	and	r24, r18
     552:	82 bb       	out	0x12, r24	; 18
     554:	08 95       	ret

00000556 <DIO_write_high_nibble>:
	}
}

void DIO_write_high_nibble(unsigned char port,unsigned char number)
{
	number<<=4;
     556:	62 95       	swap	r22
     558:	60 7f       	andi	r22, 0xF0	; 240
	switch(port)
     55a:	90 e0       	ldi	r25, 0x00	; 0
     55c:	fc 01       	movw	r30, r24
     55e:	e1 54       	subi	r30, 0x41	; 65
     560:	f1 09       	sbc	r31, r1
     562:	e4 32       	cpi	r30, 0x24	; 36
     564:	f1 05       	cpc	r31, r1
     566:	f8 f4       	brcc	.+62     	; 0x5a6 <DIO_write_high_nibble+0x50>
     568:	e6 54       	subi	r30, 0x46	; 70
     56a:	ff 4f       	sbci	r31, 0xFF	; 255
     56c:	0c 94 03 13 	jmp	0x2606	; 0x2606 <__tablejump2__>
	{
		case 'A':
		case 'a':
		PORTA&=0x0F;
     570:	8b b3       	in	r24, 0x1b	; 27
     572:	8f 70       	andi	r24, 0x0F	; 15
     574:	8b bb       	out	0x1b, r24	; 27
		PORTA|=number;
     576:	8b b3       	in	r24, 0x1b	; 27
     578:	68 2b       	or	r22, r24
     57a:	6b bb       	out	0x1b, r22	; 27
		break;
     57c:	08 95       	ret
		case 'B':
		case 'b':
		PORTB&=0x0F;
     57e:	88 b3       	in	r24, 0x18	; 24
     580:	8f 70       	andi	r24, 0x0F	; 15
     582:	88 bb       	out	0x18, r24	; 24
		PORTB|=number;
     584:	88 b3       	in	r24, 0x18	; 24
     586:	68 2b       	or	r22, r24
     588:	68 bb       	out	0x18, r22	; 24
		break;
     58a:	08 95       	ret
		case 'C':
		case 'c':
		PORTC&=0x0F;
     58c:	85 b3       	in	r24, 0x15	; 21
     58e:	8f 70       	andi	r24, 0x0F	; 15
     590:	85 bb       	out	0x15, r24	; 21
		PORTC|=number;
     592:	85 b3       	in	r24, 0x15	; 21
     594:	68 2b       	or	r22, r24
     596:	65 bb       	out	0x15, r22	; 21
		break;
     598:	08 95       	ret
		case 'D':
		case 'd':
		PORTD&=0x0F;
     59a:	82 b3       	in	r24, 0x12	; 18
     59c:	8f 70       	andi	r24, 0x0F	; 15
     59e:	82 bb       	out	0x12, r24	; 18
		PORTD|=number;
     5a0:	82 b3       	in	r24, 0x12	; 18
     5a2:	68 2b       	or	r22, r24
     5a4:	62 bb       	out	0x12, r22	; 18
     5a6:	08 95       	ret

000005a8 <EEPROM_write>:


void EEPROM_write(unsigned short address,unsigned char data)
{
	
	EEARL=(char)address;
     5a8:	8e bb       	out	0x1e, r24	; 30
	EEARH=(char)(address>>8);
     5aa:	9f bb       	out	0x1f, r25	; 31
	EEDR=data;
     5ac:	6d bb       	out	0x1d, r22	; 29
	SET_BIT(EECR,EEMWE);
     5ae:	8c b3       	in	r24, 0x1c	; 28
     5b0:	84 60       	ori	r24, 0x04	; 4
     5b2:	8c bb       	out	0x1c, r24	; 28
	SET_BIT(EECR,EEWE);
     5b4:	8c b3       	in	r24, 0x1c	; 28
     5b6:	82 60       	ori	r24, 0x02	; 2
     5b8:	8c bb       	out	0x1c, r24	; 28
	while(1==READ_BIT(EECR,EEWE));
     5ba:	e1 99       	sbic	0x1c, 1	; 28
     5bc:	fe cf       	rjmp	.-4      	; 0x5ba <EEPROM_write+0x12>
}
     5be:	08 95       	ret

000005c0 <EEPROM_read>:

unsigned char EEPROM_read(const unsigned short address)
{
	
	EEARL=(char)address;
     5c0:	8e bb       	out	0x1e, r24	; 30
	EEARH=(char)(address>>8);
     5c2:	9f bb       	out	0x1f, r25	; 31
	SET_BIT(EECR,EERE);
     5c4:	8c b3       	in	r24, 0x1c	; 28
     5c6:	81 60       	ori	r24, 0x01	; 1
     5c8:	8c bb       	out	0x1c, r24	; 28
	return EEDR;
     5ca:	8d b3       	in	r24, 0x1d	; 29
     5cc:	08 95       	ret

000005ce <KEYBAD_init>:
#include "KEYBAD.h"
#include "DIO.h"

void KEYBAD_init(void)
{
	DIO_set_pin_dir(PORT_11,0,1);
     5ce:	41 e0       	ldi	r20, 0x01	; 1
     5d0:	60 e0       	ldi	r22, 0x00	; 0
     5d2:	83 e4       	ldi	r24, 0x43	; 67
     5d4:	0e 94 fd 00 	call	0x1fa	; 0x1fa <DIO_set_pin_dir>
	DIO_set_pin_dir(PORT_11,1,1);
     5d8:	41 e0       	ldi	r20, 0x01	; 1
     5da:	61 e0       	ldi	r22, 0x01	; 1
     5dc:	83 e4       	ldi	r24, 0x43	; 67
     5de:	0e 94 fd 00 	call	0x1fa	; 0x1fa <DIO_set_pin_dir>
	DIO_set_pin_dir(PORT_11,2,1);
     5e2:	41 e0       	ldi	r20, 0x01	; 1
     5e4:	62 e0       	ldi	r22, 0x02	; 2
     5e6:	83 e4       	ldi	r24, 0x43	; 67
     5e8:	0e 94 fd 00 	call	0x1fa	; 0x1fa <DIO_set_pin_dir>
	DIO_set_pin_dir(PORT_11,3,1);
     5ec:	41 e0       	ldi	r20, 0x01	; 1
     5ee:	63 e0       	ldi	r22, 0x03	; 3
     5f0:	83 e4       	ldi	r24, 0x43	; 67
     5f2:	0e 94 fd 00 	call	0x1fa	; 0x1fa <DIO_set_pin_dir>
	DIO_set_pin_dir(PORT_22,4,0);
     5f6:	40 e0       	ldi	r20, 0x00	; 0
     5f8:	64 e0       	ldi	r22, 0x04	; 4
     5fa:	83 e4       	ldi	r24, 0x43	; 67
     5fc:	0e 94 fd 00 	call	0x1fa	; 0x1fa <DIO_set_pin_dir>
	DIO_set_pin_dir(PORT_22,5,0);
     600:	40 e0       	ldi	r20, 0x00	; 0
     602:	65 e0       	ldi	r22, 0x05	; 5
     604:	83 e4       	ldi	r24, 0x43	; 67
     606:	0e 94 fd 00 	call	0x1fa	; 0x1fa <DIO_set_pin_dir>
	DIO_set_pin_dir(PORT_22,6,0);
     60a:	40 e0       	ldi	r20, 0x00	; 0
     60c:	66 e0       	ldi	r22, 0x06	; 6
     60e:	83 e4       	ldi	r24, 0x43	; 67
     610:	0e 94 fd 00 	call	0x1fa	; 0x1fa <DIO_set_pin_dir>
	DIO_set_pin_dir(PORT_22,7,0);
     614:	40 e0       	ldi	r20, 0x00	; 0
     616:	67 e0       	ldi	r22, 0x07	; 7
     618:	83 e4       	ldi	r24, 0x43	; 67
     61a:	0e 94 fd 00 	call	0x1fa	; 0x1fa <DIO_set_pin_dir>
	DIO_connect_pull_up(PORT_22,4,1);
     61e:	41 e0       	ldi	r20, 0x01	; 1
     620:	64 e0       	ldi	r22, 0x04	; 4
     622:	83 e4       	ldi	r24, 0x43	; 67
     624:	0e 94 3b 02 	call	0x476	; 0x476 <DIO_connect_pull_up>
	DIO_connect_pull_up(PORT_22,5,1);
     628:	41 e0       	ldi	r20, 0x01	; 1
     62a:	65 e0       	ldi	r22, 0x05	; 5
     62c:	83 e4       	ldi	r24, 0x43	; 67
     62e:	0e 94 3b 02 	call	0x476	; 0x476 <DIO_connect_pull_up>
	DIO_connect_pull_up(PORT_22,6,1);
     632:	41 e0       	ldi	r20, 0x01	; 1
     634:	66 e0       	ldi	r22, 0x06	; 6
     636:	83 e4       	ldi	r24, 0x43	; 67
     638:	0e 94 3b 02 	call	0x476	; 0x476 <DIO_connect_pull_up>
	DIO_connect_pull_up(PORT_22,7,1);
     63c:	41 e0       	ldi	r20, 0x01	; 1
     63e:	67 e0       	ldi	r22, 0x07	; 7
     640:	83 e4       	ldi	r24, 0x43	; 67
     642:	0e 94 3b 02 	call	0x476	; 0x476 <DIO_connect_pull_up>
     646:	08 95       	ret

00000648 <KEYBAD_check_press>:
}

char KEYBAD_check_press(void)
{
     648:	ef 92       	push	r14
     64a:	ff 92       	push	r15
     64c:	0f 93       	push	r16
     64e:	1f 93       	push	r17
     650:	cf 93       	push	r28
     652:	df 93       	push	r29
     654:	cd b7       	in	r28, 0x3d	; 61
     656:	de b7       	in	r29, 0x3e	; 62
     658:	60 97       	sbiw	r28, 0x10	; 16
     65a:	0f b6       	in	r0, 0x3f	; 63
     65c:	f8 94       	cli
     65e:	de bf       	out	0x3e, r29	; 62
     660:	0f be       	out	0x3f, r0	; 63
     662:	cd bf       	out	0x3d, r28	; 61
	char arr_out_val[4][4]={{'7','8','9','/'},{'4','5','6','*'},{'1','2','3','-'},{'A','0','=','+'}};
     664:	80 e1       	ldi	r24, 0x10	; 16
     666:	e0 e6       	ldi	r30, 0x60	; 96
     668:	f0 e0       	ldi	r31, 0x00	; 0
     66a:	de 01       	movw	r26, r28
     66c:	11 96       	adiw	r26, 0x01	; 1
     66e:	01 90       	ld	r0, Z+
     670:	0d 92       	st	X+, r0
     672:	8a 95       	dec	r24
     674:	e1 f7       	brne	.-8      	; 0x66e <KEYBAD_check_press+0x26>
	char ret_val=0xff,value;
	char row,coloum;
	for(row=0;row<4;row++)
     676:	f1 2c       	mov	r15, r1
}

char KEYBAD_check_press(void)
{
	char arr_out_val[4][4]={{'7','8','9','/'},{'4','5','6','*'},{'1','2','3','-'},{'A','0','=','+'}};
	char ret_val=0xff,value;
     678:	ee 24       	eor	r14, r14
     67a:	ea 94       	dec	r14
	char row,coloum;
	for(row=0;row<4;row++)
     67c:	39 c0       	rjmp	.+114    	; 0x6f0 <KEYBAD_check_press+0xa8>
	{
		DIO_write_pin(PORT_11,0,1);
     67e:	41 e0       	ldi	r20, 0x01	; 1
     680:	60 e0       	ldi	r22, 0x00	; 0
     682:	83 e4       	ldi	r24, 0x43	; 67
     684:	0e 94 6d 01 	call	0x2da	; 0x2da <DIO_write_pin>
		DIO_write_pin(PORT_11,1,1);
     688:	41 e0       	ldi	r20, 0x01	; 1
     68a:	61 e0       	ldi	r22, 0x01	; 1
     68c:	83 e4       	ldi	r24, 0x43	; 67
     68e:	0e 94 6d 01 	call	0x2da	; 0x2da <DIO_write_pin>
		DIO_write_pin(PORT_11,2,1);
     692:	41 e0       	ldi	r20, 0x01	; 1
     694:	62 e0       	ldi	r22, 0x02	; 2
     696:	83 e4       	ldi	r24, 0x43	; 67
     698:	0e 94 6d 01 	call	0x2da	; 0x2da <DIO_write_pin>
		DIO_write_pin(PORT_11,3,1);
     69c:	41 e0       	ldi	r20, 0x01	; 1
     69e:	63 e0       	ldi	r22, 0x03	; 3
     6a0:	83 e4       	ldi	r24, 0x43	; 67
     6a2:	0e 94 6d 01 	call	0x2da	; 0x2da <DIO_write_pin>
		DIO_write_pin(PORT_11,row,0);
     6a6:	40 e0       	ldi	r20, 0x00	; 0
     6a8:	6f 2d       	mov	r22, r15
     6aa:	83 e4       	ldi	r24, 0x43	; 67
     6ac:	0e 94 6d 01 	call	0x2da	; 0x2da <DIO_write_pin>
		for (coloum=0;coloum<4;coloum++)
     6b0:	10 e0       	ldi	r17, 0x00	; 0
     6b2:	19 c0       	rjmp	.+50     	; 0x6e6 <KEYBAD_check_press+0x9e>
		{
			value=DIO_read_pin(PORT_22,(coloum+4));
     6b4:	64 e0       	ldi	r22, 0x04	; 4
     6b6:	61 0f       	add	r22, r17
     6b8:	83 e4       	ldi	r24, 0x43	; 67
     6ba:	0e 94 dd 01 	call	0x3ba	; 0x3ba <DIO_read_pin>
     6be:	08 2f       	mov	r16, r24
			if(0==value)
     6c0:	81 11       	cpse	r24, r1
     6c2:	10 c0       	rjmp	.+32     	; 0x6e4 <KEYBAD_check_press+0x9c>
			{
				ret_val=arr_out_val[row][coloum];
     6c4:	ef 2d       	mov	r30, r15
     6c6:	f0 e0       	ldi	r31, 0x00	; 0
     6c8:	ee 0f       	add	r30, r30
     6ca:	ff 1f       	adc	r31, r31
     6cc:	ee 0f       	add	r30, r30
     6ce:	ff 1f       	adc	r31, r31
     6d0:	81 e0       	ldi	r24, 0x01	; 1
     6d2:	90 e0       	ldi	r25, 0x00	; 0
     6d4:	8c 0f       	add	r24, r28
     6d6:	9d 1f       	adc	r25, r29
     6d8:	e8 0f       	add	r30, r24
     6da:	f9 1f       	adc	r31, r25
     6dc:	e1 0f       	add	r30, r17
     6de:	f1 1d       	adc	r31, r1
     6e0:	e0 80       	ld	r14, Z
				break;
     6e2:	03 c0       	rjmp	.+6      	; 0x6ea <KEYBAD_check_press+0xa2>
		DIO_write_pin(PORT_11,0,1);
		DIO_write_pin(PORT_11,1,1);
		DIO_write_pin(PORT_11,2,1);
		DIO_write_pin(PORT_11,3,1);
		DIO_write_pin(PORT_11,row,0);
		for (coloum=0;coloum<4;coloum++)
     6e4:	1f 5f       	subi	r17, 0xFF	; 255
     6e6:	14 30       	cpi	r17, 0x04	; 4
     6e8:	28 f3       	brcs	.-54     	; 0x6b4 <KEYBAD_check_press+0x6c>
			{
				ret_val=arr_out_val[row][coloum];
				break;
			}
		}
		if (0==value)
     6ea:	00 23       	and	r16, r16
     6ec:	21 f0       	breq	.+8      	; 0x6f6 <KEYBAD_check_press+0xae>
char KEYBAD_check_press(void)
{
	char arr_out_val[4][4]={{'7','8','9','/'},{'4','5','6','*'},{'1','2','3','-'},{'A','0','=','+'}};
	char ret_val=0xff,value;
	char row,coloum;
	for(row=0;row<4;row++)
     6ee:	f3 94       	inc	r15
     6f0:	93 e0       	ldi	r25, 0x03	; 3
     6f2:	9f 15       	cp	r25, r15
     6f4:	20 f6       	brcc	.-120    	; 0x67e <KEYBAD_check_press+0x36>
		{
			break;
		}
	}
	return ret_val;
}
     6f6:	8e 2d       	mov	r24, r14
     6f8:	60 96       	adiw	r28, 0x10	; 16
     6fa:	0f b6       	in	r0, 0x3f	; 63
     6fc:	f8 94       	cli
     6fe:	de bf       	out	0x3e, r29	; 62
     700:	0f be       	out	0x3f, r0	; 63
     702:	cd bf       	out	0x3d, r28	; 61
     704:	df 91       	pop	r29
     706:	cf 91       	pop	r28
     708:	1f 91       	pop	r17
     70a:	0f 91       	pop	r16
     70c:	ff 90       	pop	r15
     70e:	ef 90       	pop	r14
     710:	08 95       	ret

00000712 <enable>:
	#endif
}

static void enable(void)
{
	DIO_write_pin(PORT_2,EN,1);
     712:	41 e0       	ldi	r20, 0x01	; 1
     714:	62 e0       	ldi	r22, 0x02	; 2
     716:	81 e4       	ldi	r24, 0x41	; 65
     718:	0e 94 6d 01 	call	0x2da	; 0x2da <DIO_write_pin>
	#else
		//round up by default
		__ticks_dc = (uint32_t)(ceil(fabs(__tmp)));
	#endif

	__builtin_avr_delay_cycles(__ticks_dc);
     71c:	8f e9       	ldi	r24, 0x9F	; 159
     71e:	9f e0       	ldi	r25, 0x0F	; 15
     720:	01 97       	sbiw	r24, 0x01	; 1
     722:	f1 f7       	brne	.-4      	; 0x720 <enable+0xe>
     724:	00 c0       	rjmp	.+0      	; 0x726 <enable+0x14>
     726:	00 00       	nop
	_delay_ms(2);
	DIO_write_pin(PORT_2,EN,0);
     728:	40 e0       	ldi	r20, 0x00	; 0
     72a:	62 e0       	ldi	r22, 0x02	; 2
     72c:	81 e4       	ldi	r24, 0x41	; 65
     72e:	0e 94 6d 01 	call	0x2da	; 0x2da <DIO_write_pin>
     732:	8f e9       	ldi	r24, 0x9F	; 159
     734:	9f e0       	ldi	r25, 0x0F	; 15
     736:	01 97       	sbiw	r24, 0x01	; 1
     738:	f1 f7       	brne	.-4      	; 0x736 <enable+0x24>
     73a:	00 c0       	rjmp	.+0      	; 0x73c <enable+0x2a>
     73c:	00 00       	nop
     73e:	08 95       	ret

00000740 <LCD_send_cmd>:
	_delay_ms(2);
}

void LCD_send_cmd(char cmd)
{
     740:	cf 93       	push	r28
     742:	c8 2f       	mov	r28, r24
	DIO_write_pin(PORT_2,RS,0);
     744:	40 e0       	ldi	r20, 0x00	; 0
     746:	60 e0       	ldi	r22, 0x00	; 0
     748:	81 e4       	ldi	r24, 0x41	; 65
     74a:	0e 94 6d 01 	call	0x2da	; 0x2da <DIO_write_pin>
	#if defined eight_bits_mode
	DIO_write_port(PORT_1,cmd);
	enable();
	#elif defined four_bits_mode
	DIO_write_high_nibble(PORT_1,cmd>>4);
     74e:	6c 2f       	mov	r22, r28
     750:	62 95       	swap	r22
     752:	6f 70       	andi	r22, 0x0F	; 15
     754:	81 e4       	ldi	r24, 0x41	; 65
     756:	0e 94 ab 02 	call	0x556	; 0x556 <DIO_write_high_nibble>
	enable();
     75a:	0e 94 89 03 	call	0x712	; 0x712 <enable>
	DIO_write_high_nibble(PORT_1,cmd);
     75e:	6c 2f       	mov	r22, r28
     760:	81 e4       	ldi	r24, 0x41	; 65
     762:	0e 94 ab 02 	call	0x556	; 0x556 <DIO_write_high_nibble>
	enable();
     766:	0e 94 89 03 	call	0x712	; 0x712 <enable>
     76a:	8f ec       	ldi	r24, 0xCF	; 207
     76c:	97 e0       	ldi	r25, 0x07	; 7
     76e:	01 97       	sbiw	r24, 0x01	; 1
     770:	f1 f7       	brne	.-4      	; 0x76e <LCD_send_cmd+0x2e>
     772:	00 c0       	rjmp	.+0      	; 0x774 <LCD_send_cmd+0x34>
     774:	00 00       	nop
	#endif
	_delay_ms(1);
}
     776:	cf 91       	pop	r28
     778:	08 95       	ret

0000077a <LCD_init>:
     77a:	2f ef       	ldi	r18, 0xFF	; 255
     77c:	81 ee       	ldi	r24, 0xE1	; 225
     77e:	94 e0       	ldi	r25, 0x04	; 4
     780:	21 50       	subi	r18, 0x01	; 1
     782:	80 40       	sbci	r24, 0x00	; 0
     784:	90 40       	sbci	r25, 0x00	; 0
     786:	e1 f7       	brne	.-8      	; 0x780 <LCD_init+0x6>
     788:	00 c0       	rjmp	.+0      	; 0x78a <LCD_init+0x10>
     78a:	00 00       	nop
	_delay_ms(1);
	LCD_send_cmd(ENTRY_MODE);  //sift curson to right
	_delay_ms(1);
	
	#elif defined four_bits_mode
	DIO_set_pin_dir(PORT_1,4,1);
     78c:	41 e0       	ldi	r20, 0x01	; 1
     78e:	64 e0       	ldi	r22, 0x04	; 4
     790:	81 e4       	ldi	r24, 0x41	; 65
     792:	0e 94 fd 00 	call	0x1fa	; 0x1fa <DIO_set_pin_dir>
	DIO_set_pin_dir(PORT_1,5,1);
     796:	41 e0       	ldi	r20, 0x01	; 1
     798:	65 e0       	ldi	r22, 0x05	; 5
     79a:	81 e4       	ldi	r24, 0x41	; 65
     79c:	0e 94 fd 00 	call	0x1fa	; 0x1fa <DIO_set_pin_dir>
	DIO_set_pin_dir(PORT_1,6,1);
     7a0:	41 e0       	ldi	r20, 0x01	; 1
     7a2:	66 e0       	ldi	r22, 0x06	; 6
     7a4:	81 e4       	ldi	r24, 0x41	; 65
     7a6:	0e 94 fd 00 	call	0x1fa	; 0x1fa <DIO_set_pin_dir>
	DIO_set_pin_dir(PORT_1,7,1);
     7aa:	41 e0       	ldi	r20, 0x01	; 1
     7ac:	67 e0       	ldi	r22, 0x07	; 7
     7ae:	81 e4       	ldi	r24, 0x41	; 65
     7b0:	0e 94 fd 00 	call	0x1fa	; 0x1fa <DIO_set_pin_dir>
	DIO_set_pin_dir(PORT_2,EN,1);
     7b4:	41 e0       	ldi	r20, 0x01	; 1
     7b6:	62 e0       	ldi	r22, 0x02	; 2
     7b8:	81 e4       	ldi	r24, 0x41	; 65
     7ba:	0e 94 fd 00 	call	0x1fa	; 0x1fa <DIO_set_pin_dir>
	DIO_set_pin_dir(PORT_2,RW,1);
     7be:	41 e0       	ldi	r20, 0x01	; 1
     7c0:	61 e0       	ldi	r22, 0x01	; 1
     7c2:	81 e4       	ldi	r24, 0x41	; 65
     7c4:	0e 94 fd 00 	call	0x1fa	; 0x1fa <DIO_set_pin_dir>
	DIO_set_pin_dir(PORT_2,RS,1);
     7c8:	41 e0       	ldi	r20, 0x01	; 1
     7ca:	60 e0       	ldi	r22, 0x00	; 0
     7cc:	81 e4       	ldi	r24, 0x41	; 65
     7ce:	0e 94 fd 00 	call	0x1fa	; 0x1fa <DIO_set_pin_dir>
	DIO_write_pin(PORT_2,RW,0);	
     7d2:	40 e0       	ldi	r20, 0x00	; 0
     7d4:	61 e0       	ldi	r22, 0x01	; 1
     7d6:	81 e4       	ldi	r24, 0x41	; 65
     7d8:	0e 94 6d 01 	call	0x2da	; 0x2da <DIO_write_pin>
	
	LCD_send_cmd(RETURN_HOME); //4_bits_mode //return home
     7dc:	82 e0       	ldi	r24, 0x02	; 2
     7de:	0e 94 a0 03 	call	0x740	; 0x740 <LCD_send_cmd>
     7e2:	8f e1       	ldi	r24, 0x1F	; 31
     7e4:	9e e4       	ldi	r25, 0x4E	; 78
     7e6:	01 97       	sbiw	r24, 0x01	; 1
     7e8:	f1 f7       	brne	.-4      	; 0x7e6 <LCD_init+0x6c>
     7ea:	00 c0       	rjmp	.+0      	; 0x7ec <LCD_init+0x72>
     7ec:	00 00       	nop
	_delay_ms(10);
	LCD_send_cmd(FOUR_BITS);  //4_bits_mode
     7ee:	88 e2       	ldi	r24, 0x28	; 40
     7f0:	0e 94 a0 03 	call	0x740	; 0x740 <LCD_send_cmd>
     7f4:	8f ec       	ldi	r24, 0xCF	; 207
     7f6:	97 e0       	ldi	r25, 0x07	; 7
     7f8:	01 97       	sbiw	r24, 0x01	; 1
     7fa:	f1 f7       	brne	.-4      	; 0x7f8 <LCD_init+0x7e>
     7fc:	00 c0       	rjmp	.+0      	; 0x7fe <LCD_init+0x84>
     7fe:	00 00       	nop
	_delay_ms(1);
	LCD_send_cmd(CLR_SCREEN);  //clear screen
     800:	81 e0       	ldi	r24, 0x01	; 1
     802:	0e 94 a0 03 	call	0x740	; 0x740 <LCD_send_cmd>
     806:	8f e1       	ldi	r24, 0x1F	; 31
     808:	9e e4       	ldi	r25, 0x4E	; 78
     80a:	01 97       	sbiw	r24, 0x01	; 1
     80c:	f1 f7       	brne	.-4      	; 0x80a <__DATA_REGION_LENGTH__+0xa>
     80e:	00 c0       	rjmp	.+0      	; 0x810 <__DATA_REGION_LENGTH__+0x10>
     810:	00 00       	nop
	_delay_ms(10);
	LCD_send_cmd(CURSOR_Off_DISPLAY_ON); //curson on, display on
     812:	8c e0       	ldi	r24, 0x0C	; 12
     814:	0e 94 a0 03 	call	0x740	; 0x740 <LCD_send_cmd>
     818:	8f ec       	ldi	r24, 0xCF	; 207
     81a:	97 e0       	ldi	r25, 0x07	; 7
     81c:	01 97       	sbiw	r24, 0x01	; 1
     81e:	f1 f7       	brne	.-4      	; 0x81c <__DATA_REGION_LENGTH__+0x1c>
     820:	00 c0       	rjmp	.+0      	; 0x822 <__DATA_REGION_LENGTH__+0x22>
     822:	00 00       	nop
	_delay_ms(1);
	LCD_send_cmd(ENTRY_MODE);  //sift curson to right
     824:	86 e0       	ldi	r24, 0x06	; 6
     826:	0e 94 a0 03 	call	0x740	; 0x740 <LCD_send_cmd>
     82a:	8f ec       	ldi	r24, 0xCF	; 207
     82c:	97 e0       	ldi	r25, 0x07	; 7
     82e:	01 97       	sbiw	r24, 0x01	; 1
     830:	f1 f7       	brne	.-4      	; 0x82e <__DATA_REGION_LENGTH__+0x2e>
     832:	00 c0       	rjmp	.+0      	; 0x834 <__DATA_REGION_LENGTH__+0x34>
     834:	00 00       	nop
     836:	08 95       	ret

00000838 <LCD_send_data>:
	#endif
	_delay_ms(1);
}

void LCD_send_data(char data)
{
     838:	cf 93       	push	r28
     83a:	c8 2f       	mov	r28, r24
	DIO_write_pin(PORT_2,RS,1);
     83c:	41 e0       	ldi	r20, 0x01	; 1
     83e:	60 e0       	ldi	r22, 0x00	; 0
     840:	81 e4       	ldi	r24, 0x41	; 65
     842:	0e 94 6d 01 	call	0x2da	; 0x2da <DIO_write_pin>
	#if defined eight_bits_mode
	DIO_write_port(PORT_1,data);
	enable();
	
	#elif defined four_bits_mode
	DIO_write_high_nibble(PORT_1,data>>4);
     846:	6c 2f       	mov	r22, r28
     848:	62 95       	swap	r22
     84a:	6f 70       	andi	r22, 0x0F	; 15
     84c:	81 e4       	ldi	r24, 0x41	; 65
     84e:	0e 94 ab 02 	call	0x556	; 0x556 <DIO_write_high_nibble>
	enable();
     852:	0e 94 89 03 	call	0x712	; 0x712 <enable>
	DIO_write_high_nibble(PORT_1,data);
     856:	6c 2f       	mov	r22, r28
     858:	81 e4       	ldi	r24, 0x41	; 65
     85a:	0e 94 ab 02 	call	0x556	; 0x556 <DIO_write_high_nibble>
	enable();
     85e:	0e 94 89 03 	call	0x712	; 0x712 <enable>
	#endif
	
}
     862:	cf 91       	pop	r28
     864:	08 95       	ret

00000866 <LCD_send_string>:

void LCD_send_string(char* string)
{
     866:	cf 93       	push	r28
     868:	df 93       	push	r29
     86a:	ec 01       	movw	r28, r24
	while((*string!='\0'))
     86c:	03 c0       	rjmp	.+6      	; 0x874 <LCD_send_string+0xe>
	{
		LCD_send_data(*string);
     86e:	0e 94 1c 04 	call	0x838	; 0x838 <LCD_send_data>
		string++;
     872:	21 96       	adiw	r28, 0x01	; 1
	
}

void LCD_send_string(char* string)
{
	while((*string!='\0'))
     874:	88 81       	ld	r24, Y
     876:	81 11       	cpse	r24, r1
     878:	fa cf       	rjmp	.-12     	; 0x86e <LCD_send_string+0x8>
	{
		LCD_send_data(*string);
		string++;
	}
}
     87a:	df 91       	pop	r29
     87c:	cf 91       	pop	r28
     87e:	08 95       	ret

00000880 <LCD_clr_screen>:

void LCD_clr_screen(void)
{
	LCD_send_cmd(CLR_SCREEN);
     880:	81 e0       	ldi	r24, 0x01	; 1
     882:	0e 94 a0 03 	call	0x740	; 0x740 <LCD_send_cmd>
     886:	8f e1       	ldi	r24, 0x1F	; 31
     888:	9e e4       	ldi	r25, 0x4E	; 78
     88a:	01 97       	sbiw	r24, 0x01	; 1
     88c:	f1 f7       	brne	.-4      	; 0x88a <LCD_clr_screen+0xa>
     88e:	00 c0       	rjmp	.+0      	; 0x890 <LCD_clr_screen+0x10>
     890:	00 00       	nop
     892:	08 95       	ret

00000894 <LCD_move_cursor>:
}

void LCD_move_cursor(char row,char coloum)
{
	char data=0;
	if (row>4 || row<1 || coloum>20 || coloum<1)
     894:	9f ef       	ldi	r25, 0xFF	; 255
     896:	98 0f       	add	r25, r24
     898:	94 30       	cpi	r25, 0x04	; 4
     89a:	c0 f4       	brcc	.+48     	; 0x8cc <LCD_move_cursor+0x38>
     89c:	65 31       	cpi	r22, 0x15	; 21
     89e:	c0 f4       	brcc	.+48     	; 0x8d0 <LCD_move_cursor+0x3c>
     8a0:	66 23       	and	r22, r22
     8a2:	c1 f0       	breq	.+48     	; 0x8d4 <LCD_move_cursor+0x40>
	{
		data=0x80;
	}
	else if (row==1)
     8a4:	81 30       	cpi	r24, 0x01	; 1
     8a6:	19 f4       	brne	.+6      	; 0x8ae <LCD_move_cursor+0x1a>
	{
		data=(0x80+coloum-1);
     8a8:	8f e7       	ldi	r24, 0x7F	; 127
     8aa:	86 0f       	add	r24, r22
     8ac:	16 c0       	rjmp	.+44     	; 0x8da <LCD_move_cursor+0x46>
	}
	else if (row==2)
     8ae:	82 30       	cpi	r24, 0x02	; 2
     8b0:	19 f4       	brne	.+6      	; 0x8b8 <LCD_move_cursor+0x24>
	{
		data=(0xC0+coloum-1);
     8b2:	8f eb       	ldi	r24, 0xBF	; 191
     8b4:	86 0f       	add	r24, r22
     8b6:	11 c0       	rjmp	.+34     	; 0x8da <LCD_move_cursor+0x46>
	}
	else if (row==3)
     8b8:	83 30       	cpi	r24, 0x03	; 3
     8ba:	19 f4       	brne	.+6      	; 0x8c2 <LCD_move_cursor+0x2e>
	{
		data=(0x94+coloum-1);
     8bc:	83 e9       	ldi	r24, 0x93	; 147
     8be:	86 0f       	add	r24, r22
     8c0:	0c c0       	rjmp	.+24     	; 0x8da <LCD_move_cursor+0x46>
	}
	else if (row==4)
     8c2:	84 30       	cpi	r24, 0x04	; 4
     8c4:	49 f4       	brne	.+18     	; 0x8d8 <LCD_move_cursor+0x44>
	{
		data=(0xD4+coloum-1);
     8c6:	83 ed       	ldi	r24, 0xD3	; 211
     8c8:	86 0f       	add	r24, r22
     8ca:	07 c0       	rjmp	.+14     	; 0x8da <LCD_move_cursor+0x46>
void LCD_move_cursor(char row,char coloum)
{
	char data=0;
	if (row>4 || row<1 || coloum>20 || coloum<1)
	{
		data=0x80;
     8cc:	80 e8       	ldi	r24, 0x80	; 128
     8ce:	05 c0       	rjmp	.+10     	; 0x8da <LCD_move_cursor+0x46>
     8d0:	80 e8       	ldi	r24, 0x80	; 128
     8d2:	03 c0       	rjmp	.+6      	; 0x8da <LCD_move_cursor+0x46>
     8d4:	80 e8       	ldi	r24, 0x80	; 128
     8d6:	01 c0       	rjmp	.+2      	; 0x8da <LCD_move_cursor+0x46>
	_delay_ms(10);
}

void LCD_move_cursor(char row,char coloum)
{
	char data=0;
     8d8:	80 e0       	ldi	r24, 0x00	; 0
	}
	else if (row==4)
	{
		data=(0xD4+coloum-1);
	}
	LCD_send_cmd(data);
     8da:	0e 94 a0 03 	call	0x740	; 0x740 <LCD_send_cmd>
     8de:	8f ec       	ldi	r24, 0xCF	; 207
     8e0:	97 e0       	ldi	r25, 0x07	; 7
     8e2:	01 97       	sbiw	r24, 0x01	; 1
     8e4:	f1 f7       	brne	.-4      	; 0x8e2 <LCD_move_cursor+0x4e>
     8e6:	00 c0       	rjmp	.+0      	; 0x8e8 <LCD_move_cursor+0x54>
     8e8:	00 00       	nop
     8ea:	08 95       	ret

000008ec <LED_init>:
#include "LED.h"
#include "DIO.h"

void LED_init(unsigned char port,unsigned char pin_number)
{
	DIO_set_pin_dir(port,pin_number,1);
     8ec:	41 e0       	ldi	r20, 0x01	; 1
     8ee:	0e 94 fd 00 	call	0x1fa	; 0x1fa <DIO_set_pin_dir>
     8f2:	08 95       	ret

000008f4 <LED_turn_on>:
}

void LED_turn_on(unsigned char port,unsigned char pin_number)
{
	DIO_write_pin(port,pin_number,1);
     8f4:	41 e0       	ldi	r20, 0x01	; 1
     8f6:	0e 94 6d 01 	call	0x2da	; 0x2da <DIO_write_pin>
     8fa:	08 95       	ret

000008fc <LED_turn_off>:
}

void LED_turn_off(unsigned char port,unsigned char pin_number)
{
	DIO_write_pin(port,pin_number,0);
     8fc:	40 e0       	ldi	r20, 0x00	; 0
     8fe:	0e 94 6d 01 	call	0x2da	; 0x2da <DIO_write_pin>
     902:	08 95       	ret

00000904 <KEYBAD_user>:
		}
    }
}

unsigned char KEYBAD_user(void)
{
     904:	cf 93       	push	r28
	unsigned char ret_val;
	time_out=0;
     906:	10 92 31 03 	sts	0x0331, r1	; 0x800331 <time_out>
     90a:	10 92 32 03 	sts	0x0332, r1	; 0x800332 <time_out+0x1>
     90e:	10 92 33 03 	sts	0x0333, r1	; 0x800333 <time_out+0x2>
     912:	10 92 34 03 	sts	0x0334, r1	; 0x800334 <time_out+0x3>
	sei(); // Set the Global Interrupt Enable bit
     916:	78 94       	sei
	do
	{
		SPI_master_transmit_and_receive_data(DUMMY_DATA);
     918:	8f ef       	ldi	r24, 0xFF	; 255
     91a:	0e 94 e5 12 	call	0x25ca	; 0x25ca <SPI_master_transmit_and_receive_data>
     91e:	8f e3       	ldi	r24, 0x3F	; 63
     920:	9c e9       	ldi	r25, 0x9C	; 156
     922:	01 97       	sbiw	r24, 0x01	; 1
     924:	f1 f7       	brne	.-4      	; 0x922 <KEYBAD_user+0x1e>
     926:	00 c0       	rjmp	.+0      	; 0x928 <KEYBAD_user+0x24>
     928:	00 00       	nop
		_delay_ms(20);
		ret_val=KEYBAD_check_press();
     92a:	0e 94 24 03 	call	0x648	; 0x648 <KEYBAD_check_press>
     92e:	c8 2f       	mov	r28, r24
	} while (NOT_pressed==ret_val && time_out<TIME_MAX);
     930:	8f 3f       	cpi	r24, 0xFF	; 255
     932:	69 f4       	brne	.+26     	; 0x94e <KEYBAD_user+0x4a>
     934:	80 91 31 03 	lds	r24, 0x0331	; 0x800331 <time_out>
     938:	90 91 32 03 	lds	r25, 0x0332	; 0x800332 <time_out+0x1>
     93c:	a0 91 33 03 	lds	r26, 0x0333	; 0x800333 <time_out+0x2>
     940:	b0 91 34 03 	lds	r27, 0x0334	; 0x800334 <time_out+0x3>
     944:	88 35       	cpi	r24, 0x58	; 88
     946:	92 40       	sbci	r25, 0x02	; 2
     948:	a1 05       	cpc	r26, r1
     94a:	b1 05       	cpc	r27, r1
     94c:	28 f3       	brcs	.-54     	; 0x918 <KEYBAD_user+0x14>
	cli(); // Clear the Global Interrupt Enable bit
     94e:	f8 94       	cli
	if (time_out>TIME_MAX)
     950:	80 91 31 03 	lds	r24, 0x0331	; 0x800331 <time_out>
     954:	90 91 32 03 	lds	r25, 0x0332	; 0x800332 <time_out+0x1>
     958:	a0 91 33 03 	lds	r26, 0x0333	; 0x800333 <time_out+0x2>
     95c:	b0 91 34 03 	lds	r27, 0x0334	; 0x800334 <time_out+0x3>
     960:	89 35       	cpi	r24, 0x59	; 89
     962:	92 40       	sbci	r25, 0x02	; 2
     964:	a1 05       	cpc	r26, r1
     966:	b1 05       	cpc	r27, r1
     968:	98 f0       	brcs	.+38     	; 0x990 <KEYBAD_user+0x8c>
	{
		LCD_clr_screen();
     96a:	0e 94 40 04 	call	0x880	; 0x880 <LCD_clr_screen>
		LCD_move_cursor(2,1);
     96e:	61 e0       	ldi	r22, 0x01	; 1
     970:	82 e0       	ldi	r24, 0x02	; 2
     972:	0e 94 4a 04 	call	0x894	; 0x894 <LCD_move_cursor>
		LCD_send_string("      Time Out");
     976:	80 e7       	ldi	r24, 0x70	; 112
     978:	90 e0       	ldi	r25, 0x00	; 0
     97a:	0e 94 33 04 	call	0x866	; 0x866 <LCD_send_string>
     97e:	8f ef       	ldi	r24, 0xFF	; 255
     980:	99 e6       	ldi	r25, 0x69	; 105
     982:	28 e1       	ldi	r18, 0x18	; 24
     984:	81 50       	subi	r24, 0x01	; 1
     986:	90 40       	sbci	r25, 0x00	; 0
     988:	20 40       	sbci	r18, 0x00	; 0
     98a:	e1 f7       	brne	.-8      	; 0x984 <KEYBAD_user+0x80>
     98c:	00 c0       	rjmp	.+0      	; 0x98e <KEYBAD_user+0x8a>
     98e:	00 00       	nop
		_delay_ms(1000);
	}
	return ret_val;
}
     990:	8c 2f       	mov	r24, r28
     992:	cf 91       	pop	r28
     994:	08 95       	ret

00000996 <main>:
unsigned char led_R1,led_R2,led_R3,led_R4;
unsigned char fan_R1,fan_R2,fan_R3,fan_R4;
unsigned char tv,air_cond,door,temperature;
volatile unsigned long time_out;
int main(void)
{
     996:	cf 93       	push	r28
     998:	df 93       	push	r29
     99a:	cd b7       	in	r28, 0x3d	; 61
     99c:	de b7       	in	r29, 0x3e	; 62
     99e:	28 97       	sbiw	r28, 0x08	; 8
     9a0:	0f b6       	in	r0, 0x3f	; 63
     9a2:	f8 94       	cli
     9a4:	de bf       	out	0x3e, r29	; 62
     9a6:	0f be       	out	0x3f, r0	; 63
     9a8:	cd bf       	out	0x3d, r28	; 61
	LCD_init();
     9aa:	0e 94 bd 03 	call	0x77a	; 0x77a <LCD_init>
	KEYBAD_init();
     9ae:	0e 94 e7 02 	call	0x5ce	; 0x5ce <KEYBAD_init>
	SPI_master_init();
     9b2:	0e 94 cc 12 	call	0x2598	; 0x2598 <SPI_master_init>
	TIMER0_CTC_init_with_interrupt();
     9b6:	0e 94 ed 12 	call	0x25da	; 0x25da <TIMER0_CTC_init_with_interrupt>
	LED_init(ADMIN_PORT,ADMIN_PIN);
     9ba:	60 e0       	ldi	r22, 0x00	; 0
     9bc:	82 e4       	ldi	r24, 0x42	; 66
     9be:	0e 94 76 04 	call	0x8ec	; 0x8ec <LED_init>
	LED_init(GUEST_PORT,GUEST_PIN);
     9c2:	61 e0       	ldi	r22, 0x01	; 1
     9c4:	82 e4       	ldi	r24, 0x42	; 66
     9c6:	0e 94 76 04 	call	0x8ec	; 0x8ec <LED_init>
	unsigned char tries=TRIES_ALLOWED;
	unsigned char pass_status;
	unsigned char pass[PASS_SIZE];
	unsigned char check_pass[PASS_SIZE];
	
	LCD_move_cursor(2,1);
     9ca:	61 e0       	ldi	r22, 0x01	; 1
     9cc:	82 e0       	ldi	r24, 0x02	; 2
     9ce:	0e 94 4a 04 	call	0x894	; 0x894 <LCD_move_cursor>
	LCD_send_string("   Welcome to Smart");
     9d2:	8f e7       	ldi	r24, 0x7F	; 127
     9d4:	90 e0       	ldi	r25, 0x00	; 0
     9d6:	0e 94 33 04 	call	0x866	; 0x866 <LCD_send_string>
	LCD_move_cursor(3,1);
     9da:	61 e0       	ldi	r22, 0x01	; 1
     9dc:	83 e0       	ldi	r24, 0x03	; 3
     9de:	0e 94 4a 04 	call	0x894	; 0x894 <LCD_move_cursor>
	LCD_send_string("     Home system");
     9e2:	83 e9       	ldi	r24, 0x93	; 147
     9e4:	90 e0       	ldi	r25, 0x00	; 0
     9e6:	0e 94 33 04 	call	0x866	; 0x866 <LCD_send_string>
     9ea:	2f ef       	ldi	r18, 0xFF	; 255
     9ec:	89 e6       	ldi	r24, 0x69	; 105
     9ee:	98 e1       	ldi	r25, 0x18	; 24
     9f0:	21 50       	subi	r18, 0x01	; 1
     9f2:	80 40       	sbci	r24, 0x00	; 0
     9f4:	90 40       	sbci	r25, 0x00	; 0
     9f6:	e1 f7       	brne	.-8      	; 0x9f0 <main+0x5a>
     9f8:	00 c0       	rjmp	.+0      	; 0x9fa <main+0x64>
     9fa:	00 00       	nop
	_delay_ms(1000);
	value_status=EEPROM_read(ADMIN_PASS_STATUS_ADDRESS);
     9fc:	81 e0       	ldi	r24, 0x01	; 1
     9fe:	91 e0       	ldi	r25, 0x01	; 1
     a00:	0e 94 e0 02 	call	0x5c0	; 0x5c0 <EEPROM_read>
	if (PASS_NOT_SET==value_status)
     a04:	8f 3f       	cpi	r24, 0xFF	; 255
     a06:	09 f0       	breq	.+2      	; 0xa0a <main+0x74>
     a08:	70 c0       	rjmp	.+224    	; 0xaea <main+0x154>
	{
		LCD_clr_screen();
     a0a:	0e 94 40 04 	call	0x880	; 0x880 <LCD_clr_screen>
		LCD_move_cursor(2,1);
     a0e:	61 e0       	ldi	r22, 0x01	; 1
     a10:	82 e0       	ldi	r24, 0x02	; 2
     a12:	0e 94 4a 04 	call	0x894	; 0x894 <LCD_move_cursor>
		LCD_send_string("     login for");
     a16:	84 ea       	ldi	r24, 0xA4	; 164
     a18:	90 e0       	ldi	r25, 0x00	; 0
     a1a:	0e 94 33 04 	call	0x866	; 0x866 <LCD_send_string>
		LCD_move_cursor(3,1);
     a1e:	61 e0       	ldi	r22, 0x01	; 1
     a20:	83 e0       	ldi	r24, 0x03	; 3
     a22:	0e 94 4a 04 	call	0x894	; 0x894 <LCD_move_cursor>
		LCD_send_string("     first time");
     a26:	83 eb       	ldi	r24, 0xB3	; 179
     a28:	90 e0       	ldi	r25, 0x00	; 0
     a2a:	0e 94 33 04 	call	0x866	; 0x866 <LCD_send_string>
     a2e:	2f ef       	ldi	r18, 0xFF	; 255
     a30:	89 e6       	ldi	r24, 0x69	; 105
     a32:	98 e1       	ldi	r25, 0x18	; 24
     a34:	21 50       	subi	r18, 0x01	; 1
     a36:	80 40       	sbci	r24, 0x00	; 0
     a38:	90 40       	sbci	r25, 0x00	; 0
     a3a:	e1 f7       	brne	.-8      	; 0xa34 <main+0x9e>
     a3c:	00 c0       	rjmp	.+0      	; 0xa3e <main+0xa8>
     a3e:	00 00       	nop
		_delay_ms(1000);
		LCD_clr_screen();
     a40:	0e 94 40 04 	call	0x880	; 0x880 <LCD_clr_screen>
		LCD_send_string(" set Admin password");
     a44:	83 ec       	ldi	r24, 0xC3	; 195
     a46:	90 e0       	ldi	r25, 0x00	; 0
     a48:	0e 94 33 04 	call	0x866	; 0x866 <LCD_send_string>
		LCD_move_cursor(3,1);
     a4c:	61 e0       	ldi	r22, 0x01	; 1
     a4e:	83 e0       	ldi	r24, 0x03	; 3
     a50:	0e 94 4a 04 	call	0x894	; 0x894 <LCD_move_cursor>
		LCD_send_string("password:");
     a54:	87 ed       	ldi	r24, 0xD7	; 215
     a56:	90 e0       	ldi	r25, 0x00	; 0
     a58:	0e 94 33 04 	call	0x866	; 0x866 <LCD_send_string>
		for (counter=0;counter<PASS_SIZE;counter++)
     a5c:	10 e0       	ldi	r17, 0x00	; 0
     a5e:	22 c0       	rjmp	.+68     	; 0xaa4 <main+0x10e>
		{
			do 
			{
				key_value=KEYBAD_check_press();
     a60:	0e 94 24 03 	call	0x648	; 0x648 <KEYBAD_check_press>
     a64:	08 2f       	mov	r16, r24
			} while (NOT_pressed==key_value);
     a66:	8f 3f       	cpi	r24, 0xFF	; 255
     a68:	d9 f3       	breq	.-10     	; 0xa60 <main+0xca>
			LCD_send_data(key_value);
     a6a:	0e 94 1c 04 	call	0x838	; 0x838 <LCD_send_data>
     a6e:	2f ef       	ldi	r18, 0xFF	; 255
     a70:	84 e3       	ldi	r24, 0x34	; 52
     a72:	9c e0       	ldi	r25, 0x0C	; 12
     a74:	21 50       	subi	r18, 0x01	; 1
     a76:	80 40       	sbci	r24, 0x00	; 0
     a78:	90 40       	sbci	r25, 0x00	; 0
     a7a:	e1 f7       	brne	.-8      	; 0xa74 <main+0xde>
     a7c:	00 c0       	rjmp	.+0      	; 0xa7e <main+0xe8>
     a7e:	00 00       	nop
			_delay_ms(500);
			LCD_move_cursor(3,10+counter);
     a80:	6a e0       	ldi	r22, 0x0A	; 10
     a82:	61 0f       	add	r22, r17
     a84:	83 e0       	ldi	r24, 0x03	; 3
     a86:	0e 94 4a 04 	call	0x894	; 0x894 <LCD_move_cursor>
			LCD_send_data(PASSWORD_SYMBOL);
     a8a:	8a e2       	ldi	r24, 0x2A	; 42
     a8c:	0e 94 1c 04 	call	0x838	; 0x838 <LCD_send_data>
			EEPROM_write(EEPROM_ADMIN_ADDRESS+counter,key_value);
     a90:	81 2f       	mov	r24, r17
     a92:	01 2e       	mov	r0, r17
     a94:	00 0c       	add	r0, r0
     a96:	99 0b       	sbc	r25, r25
     a98:	60 2f       	mov	r22, r16
     a9a:	8e 5f       	subi	r24, 0xFE	; 254
     a9c:	9e 4f       	sbci	r25, 0xFE	; 254
     a9e:	0e 94 d4 02 	call	0x5a8	; 0x5a8 <EEPROM_write>
		_delay_ms(1000);
		LCD_clr_screen();
		LCD_send_string(" set Admin password");
		LCD_move_cursor(3,1);
		LCD_send_string("password:");
		for (counter=0;counter<PASS_SIZE;counter++)
     aa2:	1f 5f       	subi	r17, 0xFF	; 255
     aa4:	14 30       	cpi	r17, 0x04	; 4
     aa6:	e4 f2       	brlt	.-72     	; 0xa60 <main+0xca>
     aa8:	2f ef       	ldi	r18, 0xFF	; 255
     aaa:	84 e3       	ldi	r24, 0x34	; 52
     aac:	9c e0       	ldi	r25, 0x0C	; 12
     aae:	21 50       	subi	r18, 0x01	; 1
     ab0:	80 40       	sbci	r24, 0x00	; 0
     ab2:	90 40       	sbci	r25, 0x00	; 0
     ab4:	e1 f7       	brne	.-8      	; 0xaae <main+0x118>
     ab6:	00 c0       	rjmp	.+0      	; 0xab8 <main+0x122>
     ab8:	00 00       	nop
			LCD_send_data(PASSWORD_SYMBOL);
			EEPROM_write(EEPROM_ADMIN_ADDRESS+counter,key_value);
			key_value=NOT_pressed;
		}
		_delay_ms(500);
		LCD_clr_screen();
     aba:	0e 94 40 04 	call	0x880	; 0x880 <LCD_clr_screen>
		LCD_move_cursor(2,1);
     abe:	61 e0       	ldi	r22, 0x01	; 1
     ac0:	82 e0       	ldi	r24, 0x02	; 2
     ac2:	0e 94 4a 04 	call	0x894	; 0x894 <LCD_move_cursor>
		LCD_send_string("   password save");
     ac6:	81 ee       	ldi	r24, 0xE1	; 225
     ac8:	90 e0       	ldi	r25, 0x00	; 0
     aca:	0e 94 33 04 	call	0x866	; 0x866 <LCD_send_string>
     ace:	2f ef       	ldi	r18, 0xFF	; 255
     ad0:	84 e3       	ldi	r24, 0x34	; 52
     ad2:	9c e0       	ldi	r25, 0x0C	; 12
     ad4:	21 50       	subi	r18, 0x01	; 1
     ad6:	80 40       	sbci	r24, 0x00	; 0
     ad8:	90 40       	sbci	r25, 0x00	; 0
     ada:	e1 f7       	brne	.-8      	; 0xad4 <main+0x13e>
     adc:	00 c0       	rjmp	.+0      	; 0xade <main+0x148>
     ade:	00 00       	nop
		_delay_ms(500);
		EEPROM_write(ADMIN_PASS_STATUS_ADDRESS,PASS_SET);
     ae0:	61 e0       	ldi	r22, 0x01	; 1
     ae2:	81 e0       	ldi	r24, 0x01	; 1
     ae4:	91 e0       	ldi	r25, 0x01	; 1
     ae6:	0e 94 d4 02 	call	0x5a8	; 0x5a8 <EEPROM_write>
	}
	
	led_R1=SPI_master_transmit_and_receive_data(DUMMY_DATA);
     aea:	8f ef       	ldi	r24, 0xFF	; 255
     aec:	0e 94 e5 12 	call	0x25ca	; 0x25ca <SPI_master_transmit_and_receive_data>
     af0:	80 93 38 03 	sts	0x0338, r24	; 0x800338 <led_R1>
     af4:	2f e7       	ldi	r18, 0x7F	; 127
     af6:	88 e3       	ldi	r24, 0x38	; 56
     af8:	91 e0       	ldi	r25, 0x01	; 1
     afa:	21 50       	subi	r18, 0x01	; 1
     afc:	80 40       	sbci	r24, 0x00	; 0
     afe:	90 40       	sbci	r25, 0x00	; 0
     b00:	e1 f7       	brne	.-8      	; 0xafa <main+0x164>
     b02:	00 c0       	rjmp	.+0      	; 0xb04 <main+0x16e>
     b04:	00 00       	nop
	_delay_ms(50);
	led_R1=SPI_master_transmit_and_receive_data(DUMMY_DATA);
     b06:	8f ef       	ldi	r24, 0xFF	; 255
     b08:	0e 94 e5 12 	call	0x25ca	; 0x25ca <SPI_master_transmit_and_receive_data>
     b0c:	80 93 38 03 	sts	0x0338, r24	; 0x800338 <led_R1>
     b10:	2f e7       	ldi	r18, 0x7F	; 127
     b12:	88 e3       	ldi	r24, 0x38	; 56
     b14:	91 e0       	ldi	r25, 0x01	; 1
     b16:	21 50       	subi	r18, 0x01	; 1
     b18:	80 40       	sbci	r24, 0x00	; 0
     b1a:	90 40       	sbci	r25, 0x00	; 0
     b1c:	e1 f7       	brne	.-8      	; 0xb16 <main+0x180>
     b1e:	00 c0       	rjmp	.+0      	; 0xb20 <main+0x18a>
     b20:	00 00       	nop
	_delay_ms(50);
	led_R2=SPI_master_transmit_and_receive_data(DUMMY_DATA);
     b22:	8f ef       	ldi	r24, 0xFF	; 255
     b24:	0e 94 e5 12 	call	0x25ca	; 0x25ca <SPI_master_transmit_and_receive_data>
     b28:	80 93 3d 03 	sts	0x033D, r24	; 0x80033d <led_R2>
     b2c:	2f e7       	ldi	r18, 0x7F	; 127
     b2e:	88 e3       	ldi	r24, 0x38	; 56
     b30:	91 e0       	ldi	r25, 0x01	; 1
     b32:	21 50       	subi	r18, 0x01	; 1
     b34:	80 40       	sbci	r24, 0x00	; 0
     b36:	90 40       	sbci	r25, 0x00	; 0
     b38:	e1 f7       	brne	.-8      	; 0xb32 <main+0x19c>
     b3a:	00 c0       	rjmp	.+0      	; 0xb3c <main+0x1a6>
     b3c:	00 00       	nop
	_delay_ms(50);
	led_R3=SPI_master_transmit_and_receive_data(DUMMY_DATA);
     b3e:	8f ef       	ldi	r24, 0xFF	; 255
     b40:	0e 94 e5 12 	call	0x25ca	; 0x25ca <SPI_master_transmit_and_receive_data>
     b44:	80 93 37 03 	sts	0x0337, r24	; 0x800337 <led_R3>
     b48:	2f e7       	ldi	r18, 0x7F	; 127
     b4a:	88 e3       	ldi	r24, 0x38	; 56
     b4c:	91 e0       	ldi	r25, 0x01	; 1
     b4e:	21 50       	subi	r18, 0x01	; 1
     b50:	80 40       	sbci	r24, 0x00	; 0
     b52:	90 40       	sbci	r25, 0x00	; 0
     b54:	e1 f7       	brne	.-8      	; 0xb4e <main+0x1b8>
     b56:	00 c0       	rjmp	.+0      	; 0xb58 <main+0x1c2>
     b58:	00 00       	nop
	_delay_ms(50);
	led_R4=SPI_master_transmit_and_receive_data(DUMMY_DATA);
     b5a:	8f ef       	ldi	r24, 0xFF	; 255
     b5c:	0e 94 e5 12 	call	0x25ca	; 0x25ca <SPI_master_transmit_and_receive_data>
     b60:	80 93 39 03 	sts	0x0339, r24	; 0x800339 <led_R4>
     b64:	2f e7       	ldi	r18, 0x7F	; 127
     b66:	88 e3       	ldi	r24, 0x38	; 56
     b68:	91 e0       	ldi	r25, 0x01	; 1
     b6a:	21 50       	subi	r18, 0x01	; 1
     b6c:	80 40       	sbci	r24, 0x00	; 0
     b6e:	90 40       	sbci	r25, 0x00	; 0
     b70:	e1 f7       	brne	.-8      	; 0xb6a <main+0x1d4>
     b72:	00 c0       	rjmp	.+0      	; 0xb74 <main+0x1de>
     b74:	00 00       	nop
	_delay_ms(50);
	fan_R1=SPI_master_transmit_and_receive_data(DUMMY_DATA);
     b76:	8f ef       	ldi	r24, 0xFF	; 255
     b78:	0e 94 e5 12 	call	0x25ca	; 0x25ca <SPI_master_transmit_and_receive_data>
     b7c:	80 93 3a 03 	sts	0x033A, r24	; 0x80033a <fan_R1>
     b80:	2f e7       	ldi	r18, 0x7F	; 127
     b82:	88 e3       	ldi	r24, 0x38	; 56
     b84:	91 e0       	ldi	r25, 0x01	; 1
     b86:	21 50       	subi	r18, 0x01	; 1
     b88:	80 40       	sbci	r24, 0x00	; 0
     b8a:	90 40       	sbci	r25, 0x00	; 0
     b8c:	e1 f7       	brne	.-8      	; 0xb86 <main+0x1f0>
     b8e:	00 c0       	rjmp	.+0      	; 0xb90 <main+0x1fa>
     b90:	00 00       	nop
	_delay_ms(50);
	fan_R2=SPI_master_transmit_and_receive_data(DUMMY_DATA);
     b92:	8f ef       	ldi	r24, 0xFF	; 255
     b94:	0e 94 e5 12 	call	0x25ca	; 0x25ca <SPI_master_transmit_and_receive_data>
     b98:	80 93 3c 03 	sts	0x033C, r24	; 0x80033c <fan_R2>
     b9c:	2f e7       	ldi	r18, 0x7F	; 127
     b9e:	88 e3       	ldi	r24, 0x38	; 56
     ba0:	91 e0       	ldi	r25, 0x01	; 1
     ba2:	21 50       	subi	r18, 0x01	; 1
     ba4:	80 40       	sbci	r24, 0x00	; 0
     ba6:	90 40       	sbci	r25, 0x00	; 0
     ba8:	e1 f7       	brne	.-8      	; 0xba2 <main+0x20c>
     baa:	00 c0       	rjmp	.+0      	; 0xbac <main+0x216>
     bac:	00 00       	nop
	_delay_ms(50);
	fan_R3=SPI_master_transmit_and_receive_data(DUMMY_DATA);
     bae:	8f ef       	ldi	r24, 0xFF	; 255
     bb0:	0e 94 e5 12 	call	0x25ca	; 0x25ca <SPI_master_transmit_and_receive_data>
     bb4:	80 93 2f 03 	sts	0x032F, r24	; 0x80032f <fan_R3>
     bb8:	2f e7       	ldi	r18, 0x7F	; 127
     bba:	88 e3       	ldi	r24, 0x38	; 56
     bbc:	91 e0       	ldi	r25, 0x01	; 1
     bbe:	21 50       	subi	r18, 0x01	; 1
     bc0:	80 40       	sbci	r24, 0x00	; 0
     bc2:	90 40       	sbci	r25, 0x00	; 0
     bc4:	e1 f7       	brne	.-8      	; 0xbbe <main+0x228>
     bc6:	00 c0       	rjmp	.+0      	; 0xbc8 <main+0x232>
     bc8:	00 00       	nop
	_delay_ms(50);
	fan_R4=SPI_master_transmit_and_receive_data(DUMMY_DATA);
     bca:	8f ef       	ldi	r24, 0xFF	; 255
     bcc:	0e 94 e5 12 	call	0x25ca	; 0x25ca <SPI_master_transmit_and_receive_data>
     bd0:	80 93 36 03 	sts	0x0336, r24	; 0x800336 <fan_R4>
     bd4:	2f e7       	ldi	r18, 0x7F	; 127
     bd6:	88 e3       	ldi	r24, 0x38	; 56
     bd8:	91 e0       	ldi	r25, 0x01	; 1
     bda:	21 50       	subi	r18, 0x01	; 1
     bdc:	80 40       	sbci	r24, 0x00	; 0
     bde:	90 40       	sbci	r25, 0x00	; 0
     be0:	e1 f7       	brne	.-8      	; 0xbda <main+0x244>
     be2:	00 c0       	rjmp	.+0      	; 0xbe4 <main+0x24e>
     be4:	00 00       	nop
	_delay_ms(50);
	door=SPI_master_transmit_and_receive_data(DUMMY_DATA);
     be6:	8f ef       	ldi	r24, 0xFF	; 255
     be8:	0e 94 e5 12 	call	0x25ca	; 0x25ca <SPI_master_transmit_and_receive_data>
     bec:	80 93 3b 03 	sts	0x033B, r24	; 0x80033b <door>
     bf0:	2f e7       	ldi	r18, 0x7F	; 127
     bf2:	88 e3       	ldi	r24, 0x38	; 56
     bf4:	91 e0       	ldi	r25, 0x01	; 1
     bf6:	21 50       	subi	r18, 0x01	; 1
     bf8:	80 40       	sbci	r24, 0x00	; 0
     bfa:	90 40       	sbci	r25, 0x00	; 0
     bfc:	e1 f7       	brne	.-8      	; 0xbf6 <main+0x260>
     bfe:	00 c0       	rjmp	.+0      	; 0xc00 <main+0x26a>
     c00:	00 00       	nop
	_delay_ms(50);
	tv=SPI_master_transmit_and_receive_data(DUMMY_DATA);
     c02:	8f ef       	ldi	r24, 0xFF	; 255
     c04:	0e 94 e5 12 	call	0x25ca	; 0x25ca <SPI_master_transmit_and_receive_data>
     c08:	80 93 2e 03 	sts	0x032E, r24	; 0x80032e <__data_end>
     c0c:	2f e7       	ldi	r18, 0x7F	; 127
     c0e:	88 e3       	ldi	r24, 0x38	; 56
     c10:	91 e0       	ldi	r25, 0x01	; 1
     c12:	21 50       	subi	r18, 0x01	; 1
     c14:	80 40       	sbci	r24, 0x00	; 0
     c16:	90 40       	sbci	r25, 0x00	; 0
     c18:	e1 f7       	brne	.-8      	; 0xc12 <main+0x27c>
     c1a:	00 c0       	rjmp	.+0      	; 0xc1c <main+0x286>
     c1c:	00 00       	nop
	_delay_ms(50);
	air_cond=SPI_master_transmit_and_receive_data(DUMMY_DATA);
     c1e:	8f ef       	ldi	r24, 0xFF	; 255
     c20:	0e 94 e5 12 	call	0x25ca	; 0x25ca <SPI_master_transmit_and_receive_data>
     c24:	80 93 35 03 	sts	0x0335, r24	; 0x800335 <air_cond>
     c28:	2f e7       	ldi	r18, 0x7F	; 127
     c2a:	88 e3       	ldi	r24, 0x38	; 56
     c2c:	91 e0       	ldi	r25, 0x01	; 1
     c2e:	21 50       	subi	r18, 0x01	; 1
     c30:	80 40       	sbci	r24, 0x00	; 0
     c32:	90 40       	sbci	r25, 0x00	; 0
     c34:	e1 f7       	brne	.-8      	; 0xc2e <main+0x298>
     c36:	00 c0       	rjmp	.+0      	; 0xc38 <main+0x2a2>
     c38:	00 00       	nop
	_delay_ms(50);
	temperature=SPI_master_transmit_and_receive_data(DUMMY_DATA);
     c3a:	8f ef       	ldi	r24, 0xFF	; 255
     c3c:	0e 94 e5 12 	call	0x25ca	; 0x25ca <SPI_master_transmit_and_receive_data>
     c40:	80 93 30 03 	sts	0x0330, r24	; 0x800330 <temperature>
     c44:	2f e7       	ldi	r18, 0x7F	; 127
     c46:	88 e3       	ldi	r24, 0x38	; 56
     c48:	91 e0       	ldi	r25, 0x01	; 1
     c4a:	21 50       	subi	r18, 0x01	; 1
     c4c:	80 40       	sbci	r24, 0x00	; 0
     c4e:	90 40       	sbci	r25, 0x00	; 0
     c50:	e1 f7       	brne	.-8      	; 0xc4a <main+0x2b4>
     c52:	00 c0       	rjmp	.+0      	; 0xc54 <main+0x2be>
     c54:	00 00       	nop
	_delay_ms(50);
	
	while (1) 
    {
		tries=EEPROM_read(ADDRESS_TRIES);
     c56:	80 e2       	ldi	r24, 0x20	; 32
     c58:	90 e0       	ldi	r25, 0x00	; 0
     c5a:	0e 94 e0 02 	call	0x5c0	; 0x5c0 <EEPROM_read>
     c5e:	18 2f       	mov	r17, r24
		if (0==tries)
     c60:	81 11       	cpse	r24, r1
     c62:	52 c0       	rjmp	.+164    	; 0xd08 <main+0x372>
		{
			LCD_clr_screen();
     c64:	0e 94 40 04 	call	0x880	; 0x880 <LCD_clr_screen>
			LCD_send_string("  the system closed");
     c68:	82 ef       	ldi	r24, 0xF2	; 242
     c6a:	90 e0       	ldi	r25, 0x00	; 0
     c6c:	0e 94 33 04 	call	0x866	; 0x866 <LCD_send_string>
			LCD_move_cursor(2,1);
     c70:	61 e0       	ldi	r22, 0x01	; 1
     c72:	82 e0       	ldi	r24, 0x02	; 2
     c74:	0e 94 4a 04 	call	0x894	; 0x894 <LCD_move_cursor>
			LCD_send_string("  please try again");
     c78:	86 e0       	ldi	r24, 0x06	; 6
     c7a:	91 e0       	ldi	r25, 0x01	; 1
     c7c:	0e 94 33 04 	call	0x866	; 0x866 <LCD_send_string>
			LCD_move_cursor(3,1);
     c80:	61 e0       	ldi	r22, 0x01	; 1
     c82:	83 e0       	ldi	r24, 0x03	; 3
     c84:	0e 94 4a 04 	call	0x894	; 0x894 <LCD_move_cursor>
			LCD_send_string("     after:");
     c88:	89 e1       	ldi	r24, 0x19	; 25
     c8a:	91 e0       	ldi	r25, 0x01	; 1
     c8c:	0e 94 33 04 	call	0x866	; 0x866 <LCD_send_string>
			for (counter=EEPROM_read(ADDRESS_TRIES_count);counter>=0;counter--)
     c90:	81 e2       	ldi	r24, 0x21	; 33
     c92:	90 e0       	ldi	r25, 0x00	; 0
     c94:	0e 94 e0 02 	call	0x5c0	; 0x5c0 <EEPROM_read>
     c98:	08 2f       	mov	r16, r24
     c9a:	29 c0       	rjmp	.+82     	; 0xcee <main+0x358>
			{
				LCD_move_cursor(3,12);
     c9c:	6c e0       	ldi	r22, 0x0C	; 12
     c9e:	83 e0       	ldi	r24, 0x03	; 3
     ca0:	0e 94 4a 04 	call	0x894	; 0x894 <LCD_move_cursor>
				LCD_send_data(counter/10+ASCII_ZERO);
     ca4:	17 e6       	ldi	r17, 0x67	; 103
     ca6:	01 02       	muls	r16, r17
     ca8:	11 2d       	mov	r17, r1
     caa:	11 24       	eor	r1, r1
     cac:	15 95       	asr	r17
     cae:	15 95       	asr	r17
     cb0:	07 fd       	sbrc	r16, 7
     cb2:	13 95       	inc	r17
     cb4:	80 e3       	ldi	r24, 0x30	; 48
     cb6:	81 0f       	add	r24, r17
     cb8:	0e 94 1c 04 	call	0x838	; 0x838 <LCD_send_data>
				LCD_send_data(counter%10+ASCII_ZERO);
     cbc:	11 0f       	add	r17, r17
     cbe:	81 2f       	mov	r24, r17
     cc0:	88 0f       	add	r24, r24
     cc2:	88 0f       	add	r24, r24
     cc4:	18 0f       	add	r17, r24
     cc6:	80 2f       	mov	r24, r16
     cc8:	81 1b       	sub	r24, r17
     cca:	80 5d       	subi	r24, 0xD0	; 208
     ccc:	0e 94 1c 04 	call	0x838	; 0x838 <LCD_send_data>
				EEPROM_write(ADDRESS_TRIES_count,counter);
     cd0:	60 2f       	mov	r22, r16
     cd2:	81 e2       	ldi	r24, 0x21	; 33
     cd4:	90 e0       	ldi	r25, 0x00	; 0
     cd6:	0e 94 d4 02 	call	0x5a8	; 0x5a8 <EEPROM_write>
     cda:	2f ef       	ldi	r18, 0xFF	; 255
     cdc:	89 e6       	ldi	r24, 0x69	; 105
     cde:	98 e1       	ldi	r25, 0x18	; 24
     ce0:	21 50       	subi	r18, 0x01	; 1
     ce2:	80 40       	sbci	r24, 0x00	; 0
     ce4:	90 40       	sbci	r25, 0x00	; 0
     ce6:	e1 f7       	brne	.-8      	; 0xce0 <main+0x34a>
     ce8:	00 c0       	rjmp	.+0      	; 0xcea <main+0x354>
     cea:	00 00       	nop
			LCD_send_string("  the system closed");
			LCD_move_cursor(2,1);
			LCD_send_string("  please try again");
			LCD_move_cursor(3,1);
			LCD_send_string("     after:");
			for (counter=EEPROM_read(ADDRESS_TRIES_count);counter>=0;counter--)
     cec:	01 50       	subi	r16, 0x01	; 1
     cee:	00 23       	and	r16, r16
     cf0:	ac f6       	brge	.-86     	; 0xc9c <main+0x306>
				LCD_send_data(counter%10+ASCII_ZERO);
				EEPROM_write(ADDRESS_TRIES_count,counter);
				_delay_ms(1000);
			}
			tries=TRIES_ALLOWED;
			EEPROM_write(ADDRESS_TRIES,TRIES_ALLOWED);
     cf2:	63 e0       	ldi	r22, 0x03	; 3
     cf4:	80 e2       	ldi	r24, 0x20	; 32
     cf6:	90 e0       	ldi	r25, 0x00	; 0
     cf8:	0e 94 d4 02 	call	0x5a8	; 0x5a8 <EEPROM_write>
			EEPROM_write(ADDRESS_TRIES_count,TIME_CLOSED);
     cfc:	6b e3       	ldi	r22, 0x3B	; 59
     cfe:	81 e2       	ldi	r24, 0x21	; 33
     d00:	90 e0       	ldi	r25, 0x00	; 0
     d02:	0e 94 d4 02 	call	0x5a8	; 0x5a8 <EEPROM_write>
				LCD_send_data(counter/10+ASCII_ZERO);
				LCD_send_data(counter%10+ASCII_ZERO);
				EEPROM_write(ADDRESS_TRIES_count,counter);
				_delay_ms(1000);
			}
			tries=TRIES_ALLOWED;
     d06:	13 e0       	ldi	r17, 0x03	; 3
			EEPROM_write(ADDRESS_TRIES,TRIES_ALLOWED);
			EEPROM_write(ADDRESS_TRIES_count,TIME_CLOSED);
		}
		
		
		LCD_clr_screen();
     d08:	0e 94 40 04 	call	0x880	; 0x880 <LCD_clr_screen>
		LCD_send_string("   select mode:");
     d0c:	85 e2       	ldi	r24, 0x25	; 37
     d0e:	91 e0       	ldi	r25, 0x01	; 1
     d10:	0e 94 33 04 	call	0x866	; 0x866 <LCD_send_string>
		LCD_move_cursor(3,1);
     d14:	61 e0       	ldi	r22, 0x01	; 1
     d16:	83 e0       	ldi	r24, 0x03	; 3
     d18:	0e 94 4a 04 	call	0x894	; 0x894 <LCD_move_cursor>
		LCD_send_string("1-Admin     2-Guest");
     d1c:	85 e3       	ldi	r24, 0x35	; 53
     d1e:	91 e0       	ldi	r25, 0x01	; 1
     d20:	0e 94 33 04 	call	0x866	; 0x866 <LCD_send_string>
		do
		{
			SPI_master_transmit_and_receive_data(DUMMY_DATA);
     d24:	8f ef       	ldi	r24, 0xFF	; 255
     d26:	0e 94 e5 12 	call	0x25ca	; 0x25ca <SPI_master_transmit_and_receive_data>
     d2a:	8f e3       	ldi	r24, 0x3F	; 63
     d2c:	9c e9       	ldi	r25, 0x9C	; 156
     d2e:	01 97       	sbiw	r24, 0x01	; 1
     d30:	f1 f7       	brne	.-4      	; 0xd2e <main+0x398>
     d32:	00 c0       	rjmp	.+0      	; 0xd34 <main+0x39e>
     d34:	00 00       	nop
			_delay_ms(20);
			key_value=KEYBAD_check_press();
     d36:	0e 94 24 03 	call	0x648	; 0x648 <KEYBAD_check_press>
		} while (NOT_pressed==key_value);
     d3a:	8f 3f       	cpi	r24, 0xFF	; 255
     d3c:	99 f3       	breq	.-26     	; 0xd24 <main+0x38e>
		mode=key_value;
		switch(mode)
     d3e:	81 33       	cpi	r24, 0x31	; 49
     d40:	11 f4       	brne	.+4      	; 0xd46 <main+0x3b0>
     d42:	0c 94 eb 0f 	jmp	0x1fd6	; 0x1fd6 <main+0x1640>
     d46:	82 33       	cpi	r24, 0x32	; 50
     d48:	11 f4       	brne	.+4      	; 0xd4e <main+0x3b8>
     d4a:	0c 94 f1 0f 	jmp	0x1fe2	; 0x1fe2 <main+0x164c>
     d4e:	83 cf       	rjmp	.-250    	; 0xc56 <main+0x2c0>
		{
			case ADMIN :
			{
				while(tries>0)
				{
					LCD_clr_screen();
     d50:	0e 94 40 04 	call	0x880	; 0x880 <LCD_clr_screen>
					LCD_send_string("     Admin mode");
     d54:	89 e4       	ldi	r24, 0x49	; 73
     d56:	91 e0       	ldi	r25, 0x01	; 1
     d58:	0e 94 33 04 	call	0x866	; 0x866 <LCD_send_string>
					LCD_move_cursor(3,1);
     d5c:	61 e0       	ldi	r22, 0x01	; 1
     d5e:	83 e0       	ldi	r24, 0x03	; 3
     d60:	0e 94 4a 04 	call	0x894	; 0x894 <LCD_move_cursor>
					LCD_send_string("check pass:");
     d64:	89 e5       	ldi	r24, 0x59	; 89
     d66:	91 e0       	ldi	r25, 0x01	; 1
     d68:	0e 94 33 04 	call	0x866	; 0x866 <LCD_send_string>
					for (counter=0;counter<PASS_SIZE;counter++)
     d6c:	00 e0       	ldi	r16, 0x00	; 0
     d6e:	2e c0       	rjmp	.+92     	; 0xdcc <main+0x436>
					{
						key_value=KEYBAD_user();
     d70:	0e 94 82 04 	call	0x904	; 0x904 <KEYBAD_user>
     d74:	e8 2e       	mov	r14, r24
						LCD_send_data(key_value);
     d76:	0e 94 1c 04 	call	0x838	; 0x838 <LCD_send_data>
     d7a:	9f ef       	ldi	r25, 0xFF	; 255
     d7c:	24 e3       	ldi	r18, 0x34	; 52
     d7e:	8c e0       	ldi	r24, 0x0C	; 12
     d80:	91 50       	subi	r25, 0x01	; 1
     d82:	20 40       	sbci	r18, 0x00	; 0
     d84:	80 40       	sbci	r24, 0x00	; 0
     d86:	e1 f7       	brne	.-8      	; 0xd80 <main+0x3ea>
     d88:	00 c0       	rjmp	.+0      	; 0xd8a <main+0x3f4>
     d8a:	00 00       	nop
						_delay_ms(500);
						LCD_move_cursor(3,12+counter);
     d8c:	6c e0       	ldi	r22, 0x0C	; 12
     d8e:	60 0f       	add	r22, r16
     d90:	83 e0       	ldi	r24, 0x03	; 3
     d92:	0e 94 4a 04 	call	0x894	; 0x894 <LCD_move_cursor>
						LCD_send_data(PASSWORD_SYMBOL);
     d96:	8a e2       	ldi	r24, 0x2A	; 42
     d98:	0e 94 1c 04 	call	0x838	; 0x838 <LCD_send_data>
						pass[counter]=key_value;
     d9c:	c0 2e       	mov	r12, r16
     d9e:	00 2e       	mov	r0, r16
     da0:	00 0c       	add	r0, r0
     da2:	dd 08       	sbc	r13, r13
     da4:	e1 e0       	ldi	r30, 0x01	; 1
     da6:	f0 e0       	ldi	r31, 0x00	; 0
     da8:	ec 0f       	add	r30, r28
     daa:	fd 1f       	adc	r31, r29
     dac:	ec 0d       	add	r30, r12
     dae:	fd 1d       	adc	r31, r13
     db0:	e0 82       	st	Z, r14
						check_pass[counter]=EEPROM_read(EEPROM_ADMIN_ADDRESS+counter);
     db2:	c6 01       	movw	r24, r12
     db4:	8e 5f       	subi	r24, 0xFE	; 254
     db6:	9e 4f       	sbci	r25, 0xFE	; 254
     db8:	0e 94 e0 02 	call	0x5c0	; 0x5c0 <EEPROM_read>
     dbc:	e5 e0       	ldi	r30, 0x05	; 5
     dbe:	f0 e0       	ldi	r31, 0x00	; 0
     dc0:	ec 0f       	add	r30, r28
     dc2:	fd 1f       	adc	r31, r29
     dc4:	ec 0d       	add	r30, r12
     dc6:	fd 1d       	adc	r31, r13
     dc8:	80 83       	st	Z, r24
				{
					LCD_clr_screen();
					LCD_send_string("     Admin mode");
					LCD_move_cursor(3,1);
					LCD_send_string("check pass:");
					for (counter=0;counter<PASS_SIZE;counter++)
     dca:	0f 5f       	subi	r16, 0xFF	; 255
     dcc:	04 30       	cpi	r16, 0x04	; 4
     dce:	84 f2       	brlt	.-96     	; 0xd70 <main+0x3da>
     dd0:	20 e0       	ldi	r18, 0x00	; 0
     dd2:	16 c0       	rjmp	.+44     	; 0xe00 <main+0x46a>
						key_value=NOT_pressed;
					}
					
					for (counter=0;counter<PASS_SIZE;counter++)
					{
						if (check_pass[counter] != pass[counter])
     dd4:	82 2f       	mov	r24, r18
     dd6:	02 2e       	mov	r0, r18
     dd8:	00 0c       	add	r0, r0
     dda:	99 0b       	sbc	r25, r25
     ddc:	e5 e0       	ldi	r30, 0x05	; 5
     dde:	f0 e0       	ldi	r31, 0x00	; 0
     de0:	ec 0f       	add	r30, r28
     de2:	fd 1f       	adc	r31, r29
     de4:	e8 0f       	add	r30, r24
     de6:	f9 1f       	adc	r31, r25
     de8:	30 81       	ld	r19, Z
     dea:	e1 e0       	ldi	r30, 0x01	; 1
     dec:	f0 e0       	ldi	r31, 0x00	; 0
     dee:	ec 0f       	add	r30, r28
     df0:	fd 1f       	adc	r31, r29
     df2:	e8 0f       	add	r30, r24
     df4:	f9 1f       	adc	r31, r25
     df6:	80 81       	ld	r24, Z
     df8:	38 13       	cpse	r19, r24
     dfa:	05 c0       	rjmp	.+10     	; 0xe06 <main+0x470>
						pass[counter]=key_value;
						check_pass[counter]=EEPROM_read(EEPROM_ADMIN_ADDRESS+counter);
						key_value=NOT_pressed;
					}
					
					for (counter=0;counter<PASS_SIZE;counter++)
     dfc:	2f 5f       	subi	r18, 0xFF	; 255
						if (check_pass[counter] != pass[counter])
						{
							pass_status=FALSE;
							break;
						}
						pass_status=TRUE;
     dfe:	f1 2c       	mov	r15, r1
						pass[counter]=key_value;
						check_pass[counter]=EEPROM_read(EEPROM_ADMIN_ADDRESS+counter);
						key_value=NOT_pressed;
					}
					
					for (counter=0;counter<PASS_SIZE;counter++)
     e00:	24 30       	cpi	r18, 0x04	; 4
     e02:	44 f3       	brlt	.-48     	; 0xdd4 <main+0x43e>
     e04:	02 c0       	rjmp	.+4      	; 0xe0a <main+0x474>
					{
						if (check_pass[counter] != pass[counter])
						{
							pass_status=FALSE;
     e06:	ff 24       	eor	r15, r15
     e08:	f3 94       	inc	r15
							break;
						}
						pass_status=TRUE;
					}
					
					if (pass_status == FALSE)
     e0a:	91 e0       	ldi	r25, 0x01	; 1
     e0c:	f9 12       	cpse	r15, r25
     e0e:	2b c0       	rjmp	.+86     	; 0xe66 <main+0x4d0>
					{
						tries-=1;
     e10:	6f ef       	ldi	r22, 0xFF	; 255
     e12:	61 0f       	add	r22, r17
						EEPROM_write(ADDRESS_TRIES,tries);
     e14:	80 e2       	ldi	r24, 0x20	; 32
     e16:	90 e0       	ldi	r25, 0x00	; 0
     e18:	0e 94 d4 02 	call	0x5a8	; 0x5a8 <EEPROM_write>
						EEPROM_write(ADDRESS_TRIES_count,TIME_CLOSED);
     e1c:	6b e3       	ldi	r22, 0x3B	; 59
     e1e:	81 e2       	ldi	r24, 0x21	; 33
     e20:	90 e0       	ldi	r25, 0x00	; 0
     e22:	0e 94 d4 02 	call	0x5a8	; 0x5a8 <EEPROM_write>
						LCD_clr_screen();
     e26:	0e 94 40 04 	call	0x880	; 0x880 <LCD_clr_screen>
						LCD_move_cursor(2,1);
     e2a:	61 e0       	ldi	r22, 0x01	; 1
     e2c:	82 e0       	ldi	r24, 0x02	; 2
     e2e:	0e 94 4a 04 	call	0x894	; 0x894 <LCD_move_cursor>
						LCD_send_string("   Wrong password");
     e32:	85 e6       	ldi	r24, 0x65	; 101
     e34:	91 e0       	ldi	r25, 0x01	; 1
     e36:	0e 94 33 04 	call	0x866	; 0x866 <LCD_send_string>
						LCD_move_cursor(3,1);
     e3a:	61 e0       	ldi	r22, 0x01	; 1
     e3c:	83 e0       	ldi	r24, 0x03	; 3
     e3e:	0e 94 4a 04 	call	0x894	; 0x894 <LCD_move_cursor>
						LCD_send_string("   Tries left:");
     e42:	87 e7       	ldi	r24, 0x77	; 119
     e44:	91 e0       	ldi	r25, 0x01	; 1
     e46:	0e 94 33 04 	call	0x866	; 0x866 <LCD_send_string>
						LCD_send_data(tries+ASCII_ZERO);
     e4a:	8f e2       	ldi	r24, 0x2F	; 47
     e4c:	81 0f       	add	r24, r17
     e4e:	0e 94 1c 04 	call	0x838	; 0x838 <LCD_send_data>
     e52:	2f ef       	ldi	r18, 0xFF	; 255
     e54:	89 e6       	ldi	r24, 0x69	; 105
     e56:	98 e1       	ldi	r25, 0x18	; 24
     e58:	21 50       	subi	r18, 0x01	; 1
     e5a:	80 40       	sbci	r24, 0x00	; 0
     e5c:	90 40       	sbci	r25, 0x00	; 0
     e5e:	e1 f7       	brne	.-8      	; 0xe58 <main+0x4c2>
     e60:	00 c0       	rjmp	.+0      	; 0xe62 <main+0x4cc>
     e62:	00 00       	nop
     e64:	f8 ce       	rjmp	.-528    	; 0xc56 <main+0x2c0>
						break;
					}
					else
					{
						tries=TRIES_ALLOWED;
						EEPROM_write(ADDRESS_TRIES,tries);
     e66:	63 e0       	ldi	r22, 0x03	; 3
     e68:	80 e2       	ldi	r24, 0x20	; 32
     e6a:	90 e0       	ldi	r25, 0x00	; 0
     e6c:	0e 94 d4 02 	call	0x5a8	; 0x5a8 <EEPROM_write>
						LCD_clr_screen();
     e70:	0e 94 40 04 	call	0x880	; 0x880 <LCD_clr_screen>
						LCD_move_cursor(2,1);
     e74:	61 e0       	ldi	r22, 0x01	; 1
     e76:	82 e0       	ldi	r24, 0x02	; 2
     e78:	0e 94 4a 04 	call	0x894	; 0x894 <LCD_move_cursor>
						LCD_send_string("   Right password");
     e7c:	86 e8       	ldi	r24, 0x86	; 134
     e7e:	91 e0       	ldi	r25, 0x01	; 1
     e80:	0e 94 33 04 	call	0x866	; 0x866 <LCD_send_string>
     e84:	2f ef       	ldi	r18, 0xFF	; 255
     e86:	84 e3       	ldi	r24, 0x34	; 52
     e88:	9c e0       	ldi	r25, 0x0C	; 12
     e8a:	21 50       	subi	r18, 0x01	; 1
     e8c:	80 40       	sbci	r24, 0x00	; 0
     e8e:	90 40       	sbci	r25, 0x00	; 0
     e90:	e1 f7       	brne	.-8      	; 0xe8a <main+0x4f4>
     e92:	00 c0       	rjmp	.+0      	; 0xe94 <main+0x4fe>
     e94:	00 00       	nop
						_delay_ms(500);
						LED_turn_on(ADMIN_PORT,ADMIN_PIN);
     e96:	60 e0       	ldi	r22, 0x00	; 0
     e98:	82 e4       	ldi	r24, 0x42	; 66
     e9a:	0e 94 7a 04 	call	0x8f4	; 0x8f4 <LED_turn_on>
						while(time_out<TIME_MAX)
     e9e:	0c 94 d6 0f 	jmp	0x1fac	; 0x1fac <main+0x1616>
						{
							LCD_clr_screen();
     ea2:	0e 94 40 04 	call	0x880	; 0x880 <LCD_clr_screen>
							LCD_send_string("Control List:");
     ea6:	88 e9       	ldi	r24, 0x98	; 152
     ea8:	91 e0       	ldi	r25, 0x01	; 1
     eaa:	0e 94 33 04 	call	0x866	; 0x866 <LCD_send_string>
							LCD_move_cursor(2,1);
     eae:	61 e0       	ldi	r22, 0x01	; 1
     eb0:	82 e0       	ldi	r24, 0x02	; 2
     eb2:	0e 94 4a 04 	call	0x894	; 0x894 <LCD_move_cursor>
							LCD_send_string(" 1-Room1   2-Room2");
     eb6:	86 ea       	ldi	r24, 0xA6	; 166
     eb8:	91 e0       	ldi	r25, 0x01	; 1
     eba:	0e 94 33 04 	call	0x866	; 0x866 <LCD_send_string>
							LCD_move_cursor(3,1);
     ebe:	61 e0       	ldi	r22, 0x01	; 1
     ec0:	83 e0       	ldi	r24, 0x03	; 3
     ec2:	0e 94 4a 04 	call	0x894	; 0x894 <LCD_move_cursor>
							LCD_send_string(" 3-Room1   4-Room4");
     ec6:	89 eb       	ldi	r24, 0xB9	; 185
     ec8:	91 e0       	ldi	r25, 0x01	; 1
     eca:	0e 94 33 04 	call	0x866	; 0x866 <LCD_send_string>
							LCD_move_cursor(4,1);
     ece:	61 e0       	ldi	r22, 0x01	; 1
     ed0:	84 e0       	ldi	r24, 0x04	; 4
     ed2:	0e 94 4a 04 	call	0x894	; 0x894 <LCD_move_cursor>
							LCD_send_string(" 0-back    A-more");
     ed6:	8c ec       	ldi	r24, 0xCC	; 204
     ed8:	91 e0       	ldi	r25, 0x01	; 1
     eda:	0e 94 33 04 	call	0x866	; 0x866 <LCD_send_string>
							menu=KEYBAD_user();
     ede:	0e 94 82 04 	call	0x904	; 0x904 <KEYBAD_user>
							if (ROOM1_MENU==menu)
     ee2:	81 33       	cpi	r24, 0x31	; 49
     ee4:	09 f0       	breq	.+2      	; 0xee8 <main+0x552>
     ee6:	5f c1       	rjmp	.+702    	; 0x11a6 <main+0x810>
     ee8:	4f c1       	rjmp	.+670    	; 0x1188 <main+0x7f2>
							{
								while(time_out<TIME_MAX)
								{
									LCD_clr_screen();
     eea:	0e 94 40 04 	call	0x880	; 0x880 <LCD_clr_screen>
									LCD_send_string("      Room one");
     eee:	8e ed       	ldi	r24, 0xDE	; 222
     ef0:	91 e0       	ldi	r25, 0x01	; 1
     ef2:	0e 94 33 04 	call	0x866	; 0x866 <LCD_send_string>
									LCD_move_cursor(3,1);
     ef6:	61 e0       	ldi	r22, 0x01	; 1
     ef8:	83 e0       	ldi	r24, 0x03	; 3
     efa:	0e 94 4a 04 	call	0x894	; 0x894 <LCD_move_cursor>
									LCD_send_string("0-back  1-led  2-fan");
     efe:	8d ee       	ldi	r24, 0xED	; 237
     f00:	91 e0       	ldi	r25, 0x01	; 1
     f02:	0e 94 33 04 	call	0x866	; 0x866 <LCD_send_string>
									device=KEYBAD_user();
     f06:	0e 94 82 04 	call	0x904	; 0x904 <KEYBAD_user>
									if (LED==device)
     f0a:	81 33       	cpi	r24, 0x31	; 49
     f0c:	09 f0       	breq	.+2      	; 0xf10 <main+0x57a>
     f0e:	94 c0       	rjmp	.+296    	; 0x1038 <main+0x6a2>
									{
										while (1)
										{
											LCD_clr_screen();
     f10:	0e 94 40 04 	call	0x880	; 0x880 <LCD_clr_screen>
											LCD_send_string("      Room one");
     f14:	8e ed       	ldi	r24, 0xDE	; 222
     f16:	91 e0       	ldi	r25, 0x01	; 1
     f18:	0e 94 33 04 	call	0x866	; 0x866 <LCD_send_string>
											LCD_move_cursor(2,1);
     f1c:	61 e0       	ldi	r22, 0x01	; 1
     f1e:	82 e0       	ldi	r24, 0x02	; 2
     f20:	0e 94 4a 04 	call	0x894	; 0x894 <LCD_move_cursor>
											LCD_send_string("led:");
     f24:	82 e0       	ldi	r24, 0x02	; 2
     f26:	92 e0       	ldi	r25, 0x02	; 2
     f28:	0e 94 33 04 	call	0x866	; 0x866 <LCD_send_string>
											LCD_move_cursor(3,1);
     f2c:	61 e0       	ldi	r22, 0x01	; 1
     f2e:	83 e0       	ldi	r24, 0x03	; 3
     f30:	0e 94 4a 04 	call	0x894	; 0x894 <LCD_move_cursor>
											LCD_send_string("0-back 1-on 2-off");
     f34:	87 e0       	ldi	r24, 0x07	; 7
     f36:	92 e0       	ldi	r25, 0x02	; 2
     f38:	0e 94 33 04 	call	0x866	; 0x866 <LCD_send_string>
											if (led_R1==ON)
     f3c:	80 91 38 03 	lds	r24, 0x0338	; 0x800338 <led_R1>
     f40:	81 30       	cpi	r24, 0x01	; 1
     f42:	89 f4       	brne	.+34     	; 0xf66 <main+0x5d0>
											{
												LCD_move_cursor(2,5);
     f44:	65 e0       	ldi	r22, 0x05	; 5
     f46:	82 e0       	ldi	r24, 0x02	; 2
     f48:	0e 94 4a 04 	call	0x894	; 0x894 <LCD_move_cursor>
												LCD_send_string("   ");
     f4c:	8d ec       	ldi	r24, 0xCD	; 205
     f4e:	92 e0       	ldi	r25, 0x02	; 2
     f50:	0e 94 33 04 	call	0x866	; 0x866 <LCD_send_string>
												LCD_move_cursor(2,5);
     f54:	65 e0       	ldi	r22, 0x05	; 5
     f56:	82 e0       	ldi	r24, 0x02	; 2
     f58:	0e 94 4a 04 	call	0x894	; 0x894 <LCD_move_cursor>
												LCD_send_string("on");
     f5c:	81 ef       	ldi	r24, 0xF1	; 241
     f5e:	92 e0       	ldi	r25, 0x02	; 2
     f60:	0e 94 33 04 	call	0x866	; 0x866 <LCD_send_string>
     f64:	10 c0       	rjmp	.+32     	; 0xf86 <main+0x5f0>
											}
											else
											{
												LCD_move_cursor(2,5);
     f66:	65 e0       	ldi	r22, 0x05	; 5
     f68:	82 e0       	ldi	r24, 0x02	; 2
     f6a:	0e 94 4a 04 	call	0x894	; 0x894 <LCD_move_cursor>
												LCD_send_string("   ");
     f6e:	8d ec       	ldi	r24, 0xCD	; 205
     f70:	92 e0       	ldi	r25, 0x02	; 2
     f72:	0e 94 33 04 	call	0x866	; 0x866 <LCD_send_string>
												LCD_move_cursor(2,5);
     f76:	65 e0       	ldi	r22, 0x05	; 5
     f78:	82 e0       	ldi	r24, 0x02	; 2
     f7a:	0e 94 4a 04 	call	0x894	; 0x894 <LCD_move_cursor>
												LCD_send_string("off");
     f7e:	85 e1       	ldi	r24, 0x15	; 21
     f80:	92 e0       	ldi	r25, 0x02	; 2
     f82:	0e 94 33 04 	call	0x866	; 0x866 <LCD_send_string>
											}
											led_status=KEYBAD_user();
     f86:	0e 94 82 04 	call	0x904	; 0x904 <KEYBAD_user>
											if (ON_STATUS==led_status)
     f8a:	81 33       	cpi	r24, 0x31	; 49
     f8c:	41 f5       	brne	.+80     	; 0xfde <main+0x648>
											{
												led_R1=ON;
     f8e:	81 e0       	ldi	r24, 0x01	; 1
     f90:	80 93 38 03 	sts	0x0338, r24	; 0x800338 <led_R1>
												SPI_master_transmit_and_receive_data(ROOM1_MENU);
     f94:	81 e3       	ldi	r24, 0x31	; 49
     f96:	0e 94 e5 12 	call	0x25ca	; 0x25ca <SPI_master_transmit_and_receive_data>
     f9a:	2f e7       	ldi	r18, 0x7F	; 127
     f9c:	88 e3       	ldi	r24, 0x38	; 56
     f9e:	91 e0       	ldi	r25, 0x01	; 1
     fa0:	21 50       	subi	r18, 0x01	; 1
     fa2:	80 40       	sbci	r24, 0x00	; 0
     fa4:	90 40       	sbci	r25, 0x00	; 0
     fa6:	e1 f7       	brne	.-8      	; 0xfa0 <main+0x60a>
     fa8:	00 c0       	rjmp	.+0      	; 0xfaa <main+0x614>
     faa:	00 00       	nop
												_delay_ms(50);
												SPI_master_transmit_and_receive_data(LED);
     fac:	81 e3       	ldi	r24, 0x31	; 49
     fae:	0e 94 e5 12 	call	0x25ca	; 0x25ca <SPI_master_transmit_and_receive_data>
     fb2:	2f e7       	ldi	r18, 0x7F	; 127
     fb4:	88 e3       	ldi	r24, 0x38	; 56
     fb6:	91 e0       	ldi	r25, 0x01	; 1
     fb8:	21 50       	subi	r18, 0x01	; 1
     fba:	80 40       	sbci	r24, 0x00	; 0
     fbc:	90 40       	sbci	r25, 0x00	; 0
     fbe:	e1 f7       	brne	.-8      	; 0xfb8 <main+0x622>
     fc0:	00 c0       	rjmp	.+0      	; 0xfc2 <main+0x62c>
     fc2:	00 00       	nop
												_delay_ms(50);
												SPI_master_transmit_and_receive_data(ON_STATUS);
     fc4:	81 e3       	ldi	r24, 0x31	; 49
     fc6:	0e 94 e5 12 	call	0x25ca	; 0x25ca <SPI_master_transmit_and_receive_data>
     fca:	2f e7       	ldi	r18, 0x7F	; 127
     fcc:	88 e3       	ldi	r24, 0x38	; 56
     fce:	91 e0       	ldi	r25, 0x01	; 1
     fd0:	21 50       	subi	r18, 0x01	; 1
     fd2:	80 40       	sbci	r24, 0x00	; 0
     fd4:	90 40       	sbci	r25, 0x00	; 0
     fd6:	e1 f7       	brne	.-8      	; 0xfd0 <main+0x63a>
     fd8:	00 c0       	rjmp	.+0      	; 0xfda <main+0x644>
     fda:	00 00       	nop
     fdc:	99 cf       	rjmp	.-206    	; 0xf10 <main+0x57a>
												_delay_ms(50);
											}
											else if (OFF_STATUS==led_status)
     fde:	82 33       	cpi	r24, 0x32	; 50
     fe0:	39 f5       	brne	.+78     	; 0x1030 <main+0x69a>
											{
												led_R1=OFF;
     fe2:	10 92 38 03 	sts	0x0338, r1	; 0x800338 <led_R1>
												SPI_master_transmit_and_receive_data(ROOM1_MENU);
     fe6:	81 e3       	ldi	r24, 0x31	; 49
     fe8:	0e 94 e5 12 	call	0x25ca	; 0x25ca <SPI_master_transmit_and_receive_data>
     fec:	2f e7       	ldi	r18, 0x7F	; 127
     fee:	88 e3       	ldi	r24, 0x38	; 56
     ff0:	91 e0       	ldi	r25, 0x01	; 1
     ff2:	21 50       	subi	r18, 0x01	; 1
     ff4:	80 40       	sbci	r24, 0x00	; 0
     ff6:	90 40       	sbci	r25, 0x00	; 0
     ff8:	e1 f7       	brne	.-8      	; 0xff2 <main+0x65c>
     ffa:	00 c0       	rjmp	.+0      	; 0xffc <main+0x666>
     ffc:	00 00       	nop
												_delay_ms(50);
												SPI_master_transmit_and_receive_data(LED);
     ffe:	81 e3       	ldi	r24, 0x31	; 49
    1000:	0e 94 e5 12 	call	0x25ca	; 0x25ca <SPI_master_transmit_and_receive_data>
    1004:	2f e7       	ldi	r18, 0x7F	; 127
    1006:	88 e3       	ldi	r24, 0x38	; 56
    1008:	91 e0       	ldi	r25, 0x01	; 1
    100a:	21 50       	subi	r18, 0x01	; 1
    100c:	80 40       	sbci	r24, 0x00	; 0
    100e:	90 40       	sbci	r25, 0x00	; 0
    1010:	e1 f7       	brne	.-8      	; 0x100a <main+0x674>
    1012:	00 c0       	rjmp	.+0      	; 0x1014 <main+0x67e>
    1014:	00 00       	nop
												_delay_ms(50);
												SPI_master_transmit_and_receive_data(OFF_STATUS);
    1016:	82 e3       	ldi	r24, 0x32	; 50
    1018:	0e 94 e5 12 	call	0x25ca	; 0x25ca <SPI_master_transmit_and_receive_data>
    101c:	2f e7       	ldi	r18, 0x7F	; 127
    101e:	88 e3       	ldi	r24, 0x38	; 56
    1020:	91 e0       	ldi	r25, 0x01	; 1
    1022:	21 50       	subi	r18, 0x01	; 1
    1024:	80 40       	sbci	r24, 0x00	; 0
    1026:	90 40       	sbci	r25, 0x00	; 0
    1028:	e1 f7       	brne	.-8      	; 0x1022 <main+0x68c>
    102a:	00 c0       	rjmp	.+0      	; 0x102c <main+0x696>
    102c:	00 00       	nop
    102e:	70 cf       	rjmp	.-288    	; 0xf10 <main+0x57a>
												_delay_ms(50);
											}
											else if (RET_STATUS==led_status)
    1030:	80 33       	cpi	r24, 0x30	; 48
    1032:	09 f0       	breq	.+2      	; 0x1036 <main+0x6a0>
    1034:	6d cf       	rjmp	.-294    	; 0xf10 <main+0x57a>
    1036:	a8 c0       	rjmp	.+336    	; 0x1188 <main+0x7f2>
											{
												break;
											}
										}
									}
									else if (FAN==device)
    1038:	82 33       	cpi	r24, 0x32	; 50
    103a:	09 f0       	breq	.+2      	; 0x103e <main+0x6a8>
    103c:	a2 c0       	rjmp	.+324    	; 0x1182 <main+0x7ec>
    103e:	92 c0       	rjmp	.+292    	; 0x1164 <main+0x7ce>
									{
										while (time_out<TIME_MAX)
										{
											LCD_clr_screen();
    1040:	0e 94 40 04 	call	0x880	; 0x880 <LCD_clr_screen>
											LCD_send_string("      Room one");
    1044:	8e ed       	ldi	r24, 0xDE	; 222
    1046:	91 e0       	ldi	r25, 0x01	; 1
    1048:	0e 94 33 04 	call	0x866	; 0x866 <LCD_send_string>
											LCD_move_cursor(2,1);
    104c:	61 e0       	ldi	r22, 0x01	; 1
    104e:	82 e0       	ldi	r24, 0x02	; 2
    1050:	0e 94 4a 04 	call	0x894	; 0x894 <LCD_move_cursor>
											LCD_send_string("fan:");
    1054:	89 e1       	ldi	r24, 0x19	; 25
    1056:	92 e0       	ldi	r25, 0x02	; 2
    1058:	0e 94 33 04 	call	0x866	; 0x866 <LCD_send_string>
											LCD_move_cursor(3,1);
    105c:	61 e0       	ldi	r22, 0x01	; 1
    105e:	83 e0       	ldi	r24, 0x03	; 3
    1060:	0e 94 4a 04 	call	0x894	; 0x894 <LCD_move_cursor>
											LCD_send_string("0-back 1-on 2-off");
    1064:	87 e0       	ldi	r24, 0x07	; 7
    1066:	92 e0       	ldi	r25, 0x02	; 2
    1068:	0e 94 33 04 	call	0x866	; 0x866 <LCD_send_string>
											if (fan_R1==ON)
    106c:	80 91 3a 03 	lds	r24, 0x033A	; 0x80033a <fan_R1>
    1070:	81 30       	cpi	r24, 0x01	; 1
    1072:	89 f4       	brne	.+34     	; 0x1096 <main+0x700>
											{
												LCD_move_cursor(2,5);
    1074:	65 e0       	ldi	r22, 0x05	; 5
    1076:	82 e0       	ldi	r24, 0x02	; 2
    1078:	0e 94 4a 04 	call	0x894	; 0x894 <LCD_move_cursor>
												LCD_send_string("   ");
    107c:	8d ec       	ldi	r24, 0xCD	; 205
    107e:	92 e0       	ldi	r25, 0x02	; 2
    1080:	0e 94 33 04 	call	0x866	; 0x866 <LCD_send_string>
												LCD_move_cursor(2,5);
    1084:	65 e0       	ldi	r22, 0x05	; 5
    1086:	82 e0       	ldi	r24, 0x02	; 2
    1088:	0e 94 4a 04 	call	0x894	; 0x894 <LCD_move_cursor>
												LCD_send_string("on");
    108c:	81 ef       	ldi	r24, 0xF1	; 241
    108e:	92 e0       	ldi	r25, 0x02	; 2
    1090:	0e 94 33 04 	call	0x866	; 0x866 <LCD_send_string>
    1094:	10 c0       	rjmp	.+32     	; 0x10b6 <main+0x720>
											}
											else
											{
												LCD_move_cursor(2,5);
    1096:	65 e0       	ldi	r22, 0x05	; 5
    1098:	82 e0       	ldi	r24, 0x02	; 2
    109a:	0e 94 4a 04 	call	0x894	; 0x894 <LCD_move_cursor>
												LCD_send_string("   ");
    109e:	8d ec       	ldi	r24, 0xCD	; 205
    10a0:	92 e0       	ldi	r25, 0x02	; 2
    10a2:	0e 94 33 04 	call	0x866	; 0x866 <LCD_send_string>
												LCD_move_cursor(2,5);
    10a6:	65 e0       	ldi	r22, 0x05	; 5
    10a8:	82 e0       	ldi	r24, 0x02	; 2
    10aa:	0e 94 4a 04 	call	0x894	; 0x894 <LCD_move_cursor>
												LCD_send_string("off");
    10ae:	85 e1       	ldi	r24, 0x15	; 21
    10b0:	92 e0       	ldi	r25, 0x02	; 2
    10b2:	0e 94 33 04 	call	0x866	; 0x866 <LCD_send_string>
											}
											fan_status=KEYBAD_user();
    10b6:	0e 94 82 04 	call	0x904	; 0x904 <KEYBAD_user>
											if (ON_STATUS==fan_status)
    10ba:	81 33       	cpi	r24, 0x31	; 49
    10bc:	41 f5       	brne	.+80     	; 0x110e <main+0x778>
											{
												fan_R1=ON;
    10be:	81 e0       	ldi	r24, 0x01	; 1
    10c0:	80 93 3a 03 	sts	0x033A, r24	; 0x80033a <fan_R1>
												SPI_master_transmit_and_receive_data(ROOM1_MENU);
    10c4:	81 e3       	ldi	r24, 0x31	; 49
    10c6:	0e 94 e5 12 	call	0x25ca	; 0x25ca <SPI_master_transmit_and_receive_data>
    10ca:	2f e7       	ldi	r18, 0x7F	; 127
    10cc:	88 e3       	ldi	r24, 0x38	; 56
    10ce:	91 e0       	ldi	r25, 0x01	; 1
    10d0:	21 50       	subi	r18, 0x01	; 1
    10d2:	80 40       	sbci	r24, 0x00	; 0
    10d4:	90 40       	sbci	r25, 0x00	; 0
    10d6:	e1 f7       	brne	.-8      	; 0x10d0 <main+0x73a>
    10d8:	00 c0       	rjmp	.+0      	; 0x10da <main+0x744>
    10da:	00 00       	nop
												_delay_ms(50);
												SPI_master_transmit_and_receive_data(FAN);
    10dc:	82 e3       	ldi	r24, 0x32	; 50
    10de:	0e 94 e5 12 	call	0x25ca	; 0x25ca <SPI_master_transmit_and_receive_data>
    10e2:	2f e7       	ldi	r18, 0x7F	; 127
    10e4:	88 e3       	ldi	r24, 0x38	; 56
    10e6:	91 e0       	ldi	r25, 0x01	; 1
    10e8:	21 50       	subi	r18, 0x01	; 1
    10ea:	80 40       	sbci	r24, 0x00	; 0
    10ec:	90 40       	sbci	r25, 0x00	; 0
    10ee:	e1 f7       	brne	.-8      	; 0x10e8 <main+0x752>
    10f0:	00 c0       	rjmp	.+0      	; 0x10f2 <main+0x75c>
    10f2:	00 00       	nop
												_delay_ms(50);
												SPI_master_transmit_and_receive_data(ON_STATUS);
    10f4:	81 e3       	ldi	r24, 0x31	; 49
    10f6:	0e 94 e5 12 	call	0x25ca	; 0x25ca <SPI_master_transmit_and_receive_data>
    10fa:	2f e7       	ldi	r18, 0x7F	; 127
    10fc:	88 e3       	ldi	r24, 0x38	; 56
    10fe:	91 e0       	ldi	r25, 0x01	; 1
    1100:	21 50       	subi	r18, 0x01	; 1
    1102:	80 40       	sbci	r24, 0x00	; 0
    1104:	90 40       	sbci	r25, 0x00	; 0
    1106:	e1 f7       	brne	.-8      	; 0x1100 <main+0x76a>
    1108:	00 c0       	rjmp	.+0      	; 0x110a <main+0x774>
    110a:	00 00       	nop
    110c:	2b c0       	rjmp	.+86     	; 0x1164 <main+0x7ce>
												_delay_ms(50);
											}
											else if (OFF_STATUS==fan_status)
    110e:	82 33       	cpi	r24, 0x32	; 50
    1110:	39 f5       	brne	.+78     	; 0x1160 <main+0x7ca>
											{
												fan_R1=OFF;
    1112:	10 92 3a 03 	sts	0x033A, r1	; 0x80033a <fan_R1>
												SPI_master_transmit_and_receive_data(ROOM1_MENU);
    1116:	81 e3       	ldi	r24, 0x31	; 49
    1118:	0e 94 e5 12 	call	0x25ca	; 0x25ca <SPI_master_transmit_and_receive_data>
    111c:	2f e7       	ldi	r18, 0x7F	; 127
    111e:	88 e3       	ldi	r24, 0x38	; 56
    1120:	91 e0       	ldi	r25, 0x01	; 1
    1122:	21 50       	subi	r18, 0x01	; 1
    1124:	80 40       	sbci	r24, 0x00	; 0
    1126:	90 40       	sbci	r25, 0x00	; 0
    1128:	e1 f7       	brne	.-8      	; 0x1122 <main+0x78c>
    112a:	00 c0       	rjmp	.+0      	; 0x112c <main+0x796>
    112c:	00 00       	nop
												_delay_ms(50);
												SPI_master_transmit_and_receive_data(FAN);
    112e:	82 e3       	ldi	r24, 0x32	; 50
    1130:	0e 94 e5 12 	call	0x25ca	; 0x25ca <SPI_master_transmit_and_receive_data>
    1134:	2f e7       	ldi	r18, 0x7F	; 127
    1136:	88 e3       	ldi	r24, 0x38	; 56
    1138:	91 e0       	ldi	r25, 0x01	; 1
    113a:	21 50       	subi	r18, 0x01	; 1
    113c:	80 40       	sbci	r24, 0x00	; 0
    113e:	90 40       	sbci	r25, 0x00	; 0
    1140:	e1 f7       	brne	.-8      	; 0x113a <main+0x7a4>
    1142:	00 c0       	rjmp	.+0      	; 0x1144 <main+0x7ae>
    1144:	00 00       	nop
												_delay_ms(50);
												SPI_master_transmit_and_receive_data(OFF_STATUS);
    1146:	82 e3       	ldi	r24, 0x32	; 50
    1148:	0e 94 e5 12 	call	0x25ca	; 0x25ca <SPI_master_transmit_and_receive_data>
    114c:	2f e7       	ldi	r18, 0x7F	; 127
    114e:	88 e3       	ldi	r24, 0x38	; 56
    1150:	91 e0       	ldi	r25, 0x01	; 1
    1152:	21 50       	subi	r18, 0x01	; 1
    1154:	80 40       	sbci	r24, 0x00	; 0
    1156:	90 40       	sbci	r25, 0x00	; 0
    1158:	e1 f7       	brne	.-8      	; 0x1152 <main+0x7bc>
    115a:	00 c0       	rjmp	.+0      	; 0x115c <main+0x7c6>
    115c:	00 00       	nop
    115e:	02 c0       	rjmp	.+4      	; 0x1164 <main+0x7ce>
												_delay_ms(50);
											}
											else if (RET_STATUS==fan_status)
    1160:	80 33       	cpi	r24, 0x30	; 48
    1162:	91 f0       	breq	.+36     	; 0x1188 <main+0x7f2>
											}
										}
									}
									else if (FAN==device)
									{
										while (time_out<TIME_MAX)
    1164:	80 91 31 03 	lds	r24, 0x0331	; 0x800331 <time_out>
    1168:	90 91 32 03 	lds	r25, 0x0332	; 0x800332 <time_out+0x1>
    116c:	a0 91 33 03 	lds	r26, 0x0333	; 0x800333 <time_out+0x2>
    1170:	b0 91 34 03 	lds	r27, 0x0334	; 0x800334 <time_out+0x3>
    1174:	88 35       	cpi	r24, 0x58	; 88
    1176:	92 40       	sbci	r25, 0x02	; 2
    1178:	a1 05       	cpc	r26, r1
    117a:	b1 05       	cpc	r27, r1
    117c:	08 f4       	brcc	.+2      	; 0x1180 <main+0x7ea>
    117e:	60 cf       	rjmp	.-320    	; 0x1040 <main+0x6aa>
    1180:	03 c0       	rjmp	.+6      	; 0x1188 <main+0x7f2>
											{
												break;
											}
										}
									}
									else if (RET_STATUS==device)
    1182:	80 33       	cpi	r24, 0x30	; 48
    1184:	09 f4       	brne	.+2      	; 0x1188 <main+0x7f2>
    1186:	12 c7       	rjmp	.+3620   	; 0x1fac <main+0x1616>
							LCD_move_cursor(4,1);
							LCD_send_string(" 0-back    A-more");
							menu=KEYBAD_user();
							if (ROOM1_MENU==menu)
							{
								while(time_out<TIME_MAX)
    1188:	80 91 31 03 	lds	r24, 0x0331	; 0x800331 <time_out>
    118c:	90 91 32 03 	lds	r25, 0x0332	; 0x800332 <time_out+0x1>
    1190:	a0 91 33 03 	lds	r26, 0x0333	; 0x800333 <time_out+0x2>
    1194:	b0 91 34 03 	lds	r27, 0x0334	; 0x800334 <time_out+0x3>
    1198:	88 35       	cpi	r24, 0x58	; 88
    119a:	92 40       	sbci	r25, 0x02	; 2
    119c:	a1 05       	cpc	r26, r1
    119e:	b1 05       	cpc	r27, r1
    11a0:	08 f4       	brcc	.+2      	; 0x11a4 <main+0x80e>
    11a2:	a3 ce       	rjmp	.-698    	; 0xeea <main+0x554>
    11a4:	03 c7       	rjmp	.+3590   	; 0x1fac <main+0x1616>
									{
										break;
									}
								}
							}
							else if (ROOM2_MENU==menu)
    11a6:	82 33       	cpi	r24, 0x32	; 50
    11a8:	09 f0       	breq	.+2      	; 0x11ac <main+0x816>
    11aa:	5e c1       	rjmp	.+700    	; 0x1468 <main+0xad2>
    11ac:	4e c1       	rjmp	.+668    	; 0x144a <main+0xab4>
							{
								while(time_out<TIME_MAX)
								{
									LCD_clr_screen();
    11ae:	0e 94 40 04 	call	0x880	; 0x880 <LCD_clr_screen>
									LCD_send_string("      Room two");
    11b2:	8e e1       	ldi	r24, 0x1E	; 30
    11b4:	92 e0       	ldi	r25, 0x02	; 2
    11b6:	0e 94 33 04 	call	0x866	; 0x866 <LCD_send_string>
									LCD_move_cursor(3,1);
    11ba:	61 e0       	ldi	r22, 0x01	; 1
    11bc:	83 e0       	ldi	r24, 0x03	; 3
    11be:	0e 94 4a 04 	call	0x894	; 0x894 <LCD_move_cursor>
									LCD_send_string("0-back  1-led  2-fan");
    11c2:	8d ee       	ldi	r24, 0xED	; 237
    11c4:	91 e0       	ldi	r25, 0x01	; 1
    11c6:	0e 94 33 04 	call	0x866	; 0x866 <LCD_send_string>
									device=KEYBAD_user();
    11ca:	0e 94 82 04 	call	0x904	; 0x904 <KEYBAD_user>
									if (LED==device)
    11ce:	81 33       	cpi	r24, 0x31	; 49
    11d0:	09 f0       	breq	.+2      	; 0x11d4 <main+0x83e>
    11d2:	a2 c0       	rjmp	.+324    	; 0x1318 <main+0x982>
    11d4:	92 c0       	rjmp	.+292    	; 0x12fa <main+0x964>
									{
										while (time_out<TIME_MAX)
										{
											LCD_clr_screen();
    11d6:	0e 94 40 04 	call	0x880	; 0x880 <LCD_clr_screen>
											LCD_send_string("      Room two");
    11da:	8e e1       	ldi	r24, 0x1E	; 30
    11dc:	92 e0       	ldi	r25, 0x02	; 2
    11de:	0e 94 33 04 	call	0x866	; 0x866 <LCD_send_string>
											LCD_move_cursor(2,1);
    11e2:	61 e0       	ldi	r22, 0x01	; 1
    11e4:	82 e0       	ldi	r24, 0x02	; 2
    11e6:	0e 94 4a 04 	call	0x894	; 0x894 <LCD_move_cursor>
											LCD_send_string("led:");
    11ea:	82 e0       	ldi	r24, 0x02	; 2
    11ec:	92 e0       	ldi	r25, 0x02	; 2
    11ee:	0e 94 33 04 	call	0x866	; 0x866 <LCD_send_string>
											LCD_move_cursor(3,1);
    11f2:	61 e0       	ldi	r22, 0x01	; 1
    11f4:	83 e0       	ldi	r24, 0x03	; 3
    11f6:	0e 94 4a 04 	call	0x894	; 0x894 <LCD_move_cursor>
											LCD_send_string("0-back 1-on 2-off");
    11fa:	87 e0       	ldi	r24, 0x07	; 7
    11fc:	92 e0       	ldi	r25, 0x02	; 2
    11fe:	0e 94 33 04 	call	0x866	; 0x866 <LCD_send_string>
											if (led_R2==ON)
    1202:	80 91 3d 03 	lds	r24, 0x033D	; 0x80033d <led_R2>
    1206:	81 30       	cpi	r24, 0x01	; 1
    1208:	89 f4       	brne	.+34     	; 0x122c <main+0x896>
											{
												LCD_move_cursor(2,5);
    120a:	65 e0       	ldi	r22, 0x05	; 5
    120c:	82 e0       	ldi	r24, 0x02	; 2
    120e:	0e 94 4a 04 	call	0x894	; 0x894 <LCD_move_cursor>
												LCD_send_string("   ");
    1212:	8d ec       	ldi	r24, 0xCD	; 205
    1214:	92 e0       	ldi	r25, 0x02	; 2
    1216:	0e 94 33 04 	call	0x866	; 0x866 <LCD_send_string>
												LCD_move_cursor(2,5);
    121a:	65 e0       	ldi	r22, 0x05	; 5
    121c:	82 e0       	ldi	r24, 0x02	; 2
    121e:	0e 94 4a 04 	call	0x894	; 0x894 <LCD_move_cursor>
												LCD_send_string("on");
    1222:	81 ef       	ldi	r24, 0xF1	; 241
    1224:	92 e0       	ldi	r25, 0x02	; 2
    1226:	0e 94 33 04 	call	0x866	; 0x866 <LCD_send_string>
    122a:	10 c0       	rjmp	.+32     	; 0x124c <main+0x8b6>
											}
											else
											{
												LCD_move_cursor(2,5);
    122c:	65 e0       	ldi	r22, 0x05	; 5
    122e:	82 e0       	ldi	r24, 0x02	; 2
    1230:	0e 94 4a 04 	call	0x894	; 0x894 <LCD_move_cursor>
												LCD_send_string("   ");
    1234:	8d ec       	ldi	r24, 0xCD	; 205
    1236:	92 e0       	ldi	r25, 0x02	; 2
    1238:	0e 94 33 04 	call	0x866	; 0x866 <LCD_send_string>
												LCD_move_cursor(2,5);
    123c:	65 e0       	ldi	r22, 0x05	; 5
    123e:	82 e0       	ldi	r24, 0x02	; 2
    1240:	0e 94 4a 04 	call	0x894	; 0x894 <LCD_move_cursor>
												LCD_send_string("off");
    1244:	85 e1       	ldi	r24, 0x15	; 21
    1246:	92 e0       	ldi	r25, 0x02	; 2
    1248:	0e 94 33 04 	call	0x866	; 0x866 <LCD_send_string>
											}
											led_status=KEYBAD_user();
    124c:	0e 94 82 04 	call	0x904	; 0x904 <KEYBAD_user>
											if (ON_STATUS==led_status)
    1250:	81 33       	cpi	r24, 0x31	; 49
    1252:	41 f5       	brne	.+80     	; 0x12a4 <main+0x90e>
											{
												led_R2=ON;
    1254:	81 e0       	ldi	r24, 0x01	; 1
    1256:	80 93 3d 03 	sts	0x033D, r24	; 0x80033d <led_R2>
												SPI_master_transmit_and_receive_data(ROOM2_MENU);
    125a:	82 e3       	ldi	r24, 0x32	; 50
    125c:	0e 94 e5 12 	call	0x25ca	; 0x25ca <SPI_master_transmit_and_receive_data>
    1260:	8f e7       	ldi	r24, 0x7F	; 127
    1262:	98 e3       	ldi	r25, 0x38	; 56
    1264:	21 e0       	ldi	r18, 0x01	; 1
    1266:	81 50       	subi	r24, 0x01	; 1
    1268:	90 40       	sbci	r25, 0x00	; 0
    126a:	20 40       	sbci	r18, 0x00	; 0
    126c:	e1 f7       	brne	.-8      	; 0x1266 <main+0x8d0>
    126e:	00 c0       	rjmp	.+0      	; 0x1270 <main+0x8da>
    1270:	00 00       	nop
												_delay_ms(50);
												SPI_master_transmit_and_receive_data(LED);
    1272:	81 e3       	ldi	r24, 0x31	; 49
    1274:	0e 94 e5 12 	call	0x25ca	; 0x25ca <SPI_master_transmit_and_receive_data>
    1278:	8f e7       	ldi	r24, 0x7F	; 127
    127a:	98 e3       	ldi	r25, 0x38	; 56
    127c:	21 e0       	ldi	r18, 0x01	; 1
    127e:	81 50       	subi	r24, 0x01	; 1
    1280:	90 40       	sbci	r25, 0x00	; 0
    1282:	20 40       	sbci	r18, 0x00	; 0
    1284:	e1 f7       	brne	.-8      	; 0x127e <main+0x8e8>
    1286:	00 c0       	rjmp	.+0      	; 0x1288 <main+0x8f2>
    1288:	00 00       	nop
												_delay_ms(50);
												SPI_master_transmit_and_receive_data(ON_STATUS);
    128a:	81 e3       	ldi	r24, 0x31	; 49
    128c:	0e 94 e5 12 	call	0x25ca	; 0x25ca <SPI_master_transmit_and_receive_data>
    1290:	8f e7       	ldi	r24, 0x7F	; 127
    1292:	98 e3       	ldi	r25, 0x38	; 56
    1294:	21 e0       	ldi	r18, 0x01	; 1
    1296:	81 50       	subi	r24, 0x01	; 1
    1298:	90 40       	sbci	r25, 0x00	; 0
    129a:	20 40       	sbci	r18, 0x00	; 0
    129c:	e1 f7       	brne	.-8      	; 0x1296 <main+0x900>
    129e:	00 c0       	rjmp	.+0      	; 0x12a0 <main+0x90a>
    12a0:	00 00       	nop
    12a2:	2b c0       	rjmp	.+86     	; 0x12fa <main+0x964>
												_delay_ms(50);
											}
											else if (OFF_STATUS==led_status)
    12a4:	82 33       	cpi	r24, 0x32	; 50
    12a6:	31 f5       	brne	.+76     	; 0x12f4 <main+0x95e>
											{
												led_R2=OFF;
    12a8:	10 92 3d 03 	sts	0x033D, r1	; 0x80033d <led_R2>
												SPI_master_transmit_and_receive_data(ROOM2_MENU);
    12ac:	0e 94 e5 12 	call	0x25ca	; 0x25ca <SPI_master_transmit_and_receive_data>
    12b0:	8f e7       	ldi	r24, 0x7F	; 127
    12b2:	98 e3       	ldi	r25, 0x38	; 56
    12b4:	21 e0       	ldi	r18, 0x01	; 1
    12b6:	81 50       	subi	r24, 0x01	; 1
    12b8:	90 40       	sbci	r25, 0x00	; 0
    12ba:	20 40       	sbci	r18, 0x00	; 0
    12bc:	e1 f7       	brne	.-8      	; 0x12b6 <main+0x920>
    12be:	00 c0       	rjmp	.+0      	; 0x12c0 <main+0x92a>
    12c0:	00 00       	nop
												_delay_ms(50);
												SPI_master_transmit_and_receive_data(LED);
    12c2:	81 e3       	ldi	r24, 0x31	; 49
    12c4:	0e 94 e5 12 	call	0x25ca	; 0x25ca <SPI_master_transmit_and_receive_data>
    12c8:	8f e7       	ldi	r24, 0x7F	; 127
    12ca:	98 e3       	ldi	r25, 0x38	; 56
    12cc:	21 e0       	ldi	r18, 0x01	; 1
    12ce:	81 50       	subi	r24, 0x01	; 1
    12d0:	90 40       	sbci	r25, 0x00	; 0
    12d2:	20 40       	sbci	r18, 0x00	; 0
    12d4:	e1 f7       	brne	.-8      	; 0x12ce <main+0x938>
    12d6:	00 c0       	rjmp	.+0      	; 0x12d8 <main+0x942>
    12d8:	00 00       	nop
												_delay_ms(50);
												SPI_master_transmit_and_receive_data(OFF_STATUS);
    12da:	82 e3       	ldi	r24, 0x32	; 50
    12dc:	0e 94 e5 12 	call	0x25ca	; 0x25ca <SPI_master_transmit_and_receive_data>
    12e0:	8f e7       	ldi	r24, 0x7F	; 127
    12e2:	98 e3       	ldi	r25, 0x38	; 56
    12e4:	21 e0       	ldi	r18, 0x01	; 1
    12e6:	81 50       	subi	r24, 0x01	; 1
    12e8:	90 40       	sbci	r25, 0x00	; 0
    12ea:	20 40       	sbci	r18, 0x00	; 0
    12ec:	e1 f7       	brne	.-8      	; 0x12e6 <main+0x950>
    12ee:	00 c0       	rjmp	.+0      	; 0x12f0 <main+0x95a>
    12f0:	00 00       	nop
    12f2:	03 c0       	rjmp	.+6      	; 0x12fa <main+0x964>
												_delay_ms(50);
											}
											else if (RET_STATUS==led_status)
    12f4:	80 33       	cpi	r24, 0x30	; 48
    12f6:	09 f4       	brne	.+2      	; 0x12fa <main+0x964>
    12f8:	a8 c0       	rjmp	.+336    	; 0x144a <main+0xab4>
									LCD_move_cursor(3,1);
									LCD_send_string("0-back  1-led  2-fan");
									device=KEYBAD_user();
									if (LED==device)
									{
										while (time_out<TIME_MAX)
    12fa:	80 91 31 03 	lds	r24, 0x0331	; 0x800331 <time_out>
    12fe:	90 91 32 03 	lds	r25, 0x0332	; 0x800332 <time_out+0x1>
    1302:	a0 91 33 03 	lds	r26, 0x0333	; 0x800333 <time_out+0x2>
    1306:	b0 91 34 03 	lds	r27, 0x0334	; 0x800334 <time_out+0x3>
    130a:	88 35       	cpi	r24, 0x58	; 88
    130c:	92 40       	sbci	r25, 0x02	; 2
    130e:	a1 05       	cpc	r26, r1
    1310:	b1 05       	cpc	r27, r1
    1312:	08 f4       	brcc	.+2      	; 0x1316 <main+0x980>
    1314:	60 cf       	rjmp	.-320    	; 0x11d6 <main+0x840>
    1316:	99 c0       	rjmp	.+306    	; 0x144a <main+0xab4>
											{
												break;
											}
										}
									}
									else if (FAN==device)
    1318:	82 33       	cpi	r24, 0x32	; 50
    131a:	09 f0       	breq	.+2      	; 0x131e <main+0x988>
    131c:	93 c0       	rjmp	.+294    	; 0x1444 <main+0xaae>
									{
										while (1)
										{
											LCD_clr_screen();
    131e:	0e 94 40 04 	call	0x880	; 0x880 <LCD_clr_screen>
											LCD_send_string("      Room two");
    1322:	8e e1       	ldi	r24, 0x1E	; 30
    1324:	92 e0       	ldi	r25, 0x02	; 2
    1326:	0e 94 33 04 	call	0x866	; 0x866 <LCD_send_string>
											LCD_move_cursor(2,1);
    132a:	61 e0       	ldi	r22, 0x01	; 1
    132c:	82 e0       	ldi	r24, 0x02	; 2
    132e:	0e 94 4a 04 	call	0x894	; 0x894 <LCD_move_cursor>
											LCD_send_string("fan:");
    1332:	89 e1       	ldi	r24, 0x19	; 25
    1334:	92 e0       	ldi	r25, 0x02	; 2
    1336:	0e 94 33 04 	call	0x866	; 0x866 <LCD_send_string>
											LCD_move_cursor(3,1);
    133a:	61 e0       	ldi	r22, 0x01	; 1
    133c:	83 e0       	ldi	r24, 0x03	; 3
    133e:	0e 94 4a 04 	call	0x894	; 0x894 <LCD_move_cursor>
											LCD_send_string("0-back 1-on 2-off");
    1342:	87 e0       	ldi	r24, 0x07	; 7
    1344:	92 e0       	ldi	r25, 0x02	; 2
    1346:	0e 94 33 04 	call	0x866	; 0x866 <LCD_send_string>
											if (fan_R2==ON)
    134a:	80 91 3c 03 	lds	r24, 0x033C	; 0x80033c <fan_R2>
    134e:	81 30       	cpi	r24, 0x01	; 1
    1350:	89 f4       	brne	.+34     	; 0x1374 <main+0x9de>
											{
												LCD_move_cursor(2,5);
    1352:	65 e0       	ldi	r22, 0x05	; 5
    1354:	82 e0       	ldi	r24, 0x02	; 2
    1356:	0e 94 4a 04 	call	0x894	; 0x894 <LCD_move_cursor>
												LCD_send_string("   ");
    135a:	8d ec       	ldi	r24, 0xCD	; 205
    135c:	92 e0       	ldi	r25, 0x02	; 2
    135e:	0e 94 33 04 	call	0x866	; 0x866 <LCD_send_string>
												LCD_move_cursor(2,5);
    1362:	65 e0       	ldi	r22, 0x05	; 5
    1364:	82 e0       	ldi	r24, 0x02	; 2
    1366:	0e 94 4a 04 	call	0x894	; 0x894 <LCD_move_cursor>
												LCD_send_string("on");
    136a:	81 ef       	ldi	r24, 0xF1	; 241
    136c:	92 e0       	ldi	r25, 0x02	; 2
    136e:	0e 94 33 04 	call	0x866	; 0x866 <LCD_send_string>
    1372:	10 c0       	rjmp	.+32     	; 0x1394 <main+0x9fe>
											}
											else
											{
												LCD_move_cursor(2,5);
    1374:	65 e0       	ldi	r22, 0x05	; 5
    1376:	82 e0       	ldi	r24, 0x02	; 2
    1378:	0e 94 4a 04 	call	0x894	; 0x894 <LCD_move_cursor>
												LCD_send_string("   ");
    137c:	8d ec       	ldi	r24, 0xCD	; 205
    137e:	92 e0       	ldi	r25, 0x02	; 2
    1380:	0e 94 33 04 	call	0x866	; 0x866 <LCD_send_string>
												LCD_move_cursor(2,5);
    1384:	65 e0       	ldi	r22, 0x05	; 5
    1386:	82 e0       	ldi	r24, 0x02	; 2
    1388:	0e 94 4a 04 	call	0x894	; 0x894 <LCD_move_cursor>
												LCD_send_string("off");
    138c:	85 e1       	ldi	r24, 0x15	; 21
    138e:	92 e0       	ldi	r25, 0x02	; 2
    1390:	0e 94 33 04 	call	0x866	; 0x866 <LCD_send_string>
											}
											fan_status=KEYBAD_user();
    1394:	0e 94 82 04 	call	0x904	; 0x904 <KEYBAD_user>
											if (ON_STATUS==fan_status)
    1398:	81 33       	cpi	r24, 0x31	; 49
    139a:	41 f5       	brne	.+80     	; 0x13ec <main+0xa56>
											{
												fan_R2=ON;
    139c:	81 e0       	ldi	r24, 0x01	; 1
    139e:	80 93 3c 03 	sts	0x033C, r24	; 0x80033c <fan_R2>
												SPI_master_transmit_and_receive_data(ROOM2_MENU);
    13a2:	82 e3       	ldi	r24, 0x32	; 50
    13a4:	0e 94 e5 12 	call	0x25ca	; 0x25ca <SPI_master_transmit_and_receive_data>
    13a8:	8f e7       	ldi	r24, 0x7F	; 127
    13aa:	98 e3       	ldi	r25, 0x38	; 56
    13ac:	21 e0       	ldi	r18, 0x01	; 1
    13ae:	81 50       	subi	r24, 0x01	; 1
    13b0:	90 40       	sbci	r25, 0x00	; 0
    13b2:	20 40       	sbci	r18, 0x00	; 0
    13b4:	e1 f7       	brne	.-8      	; 0x13ae <main+0xa18>
    13b6:	00 c0       	rjmp	.+0      	; 0x13b8 <main+0xa22>
    13b8:	00 00       	nop
												_delay_ms(50);
												SPI_master_transmit_and_receive_data(FAN);
    13ba:	82 e3       	ldi	r24, 0x32	; 50
    13bc:	0e 94 e5 12 	call	0x25ca	; 0x25ca <SPI_master_transmit_and_receive_data>
    13c0:	8f e7       	ldi	r24, 0x7F	; 127
    13c2:	98 e3       	ldi	r25, 0x38	; 56
    13c4:	21 e0       	ldi	r18, 0x01	; 1
    13c6:	81 50       	subi	r24, 0x01	; 1
    13c8:	90 40       	sbci	r25, 0x00	; 0
    13ca:	20 40       	sbci	r18, 0x00	; 0
    13cc:	e1 f7       	brne	.-8      	; 0x13c6 <main+0xa30>
    13ce:	00 c0       	rjmp	.+0      	; 0x13d0 <main+0xa3a>
    13d0:	00 00       	nop
												_delay_ms(50);
												SPI_master_transmit_and_receive_data(ON_STATUS);
    13d2:	81 e3       	ldi	r24, 0x31	; 49
    13d4:	0e 94 e5 12 	call	0x25ca	; 0x25ca <SPI_master_transmit_and_receive_data>
    13d8:	8f e7       	ldi	r24, 0x7F	; 127
    13da:	98 e3       	ldi	r25, 0x38	; 56
    13dc:	21 e0       	ldi	r18, 0x01	; 1
    13de:	81 50       	subi	r24, 0x01	; 1
    13e0:	90 40       	sbci	r25, 0x00	; 0
    13e2:	20 40       	sbci	r18, 0x00	; 0
    13e4:	e1 f7       	brne	.-8      	; 0x13de <main+0xa48>
    13e6:	00 c0       	rjmp	.+0      	; 0x13e8 <main+0xa52>
    13e8:	00 00       	nop
    13ea:	99 cf       	rjmp	.-206    	; 0x131e <main+0x988>
												_delay_ms(50);
											}
											else if (OFF_STATUS==fan_status)
    13ec:	82 33       	cpi	r24, 0x32	; 50
    13ee:	31 f5       	brne	.+76     	; 0x143c <main+0xaa6>
											{
												fan_R2=OFF;
    13f0:	10 92 3c 03 	sts	0x033C, r1	; 0x80033c <fan_R2>
												SPI_master_transmit_and_receive_data(ROOM2_MENU);
    13f4:	0e 94 e5 12 	call	0x25ca	; 0x25ca <SPI_master_transmit_and_receive_data>
    13f8:	8f e7       	ldi	r24, 0x7F	; 127
    13fa:	98 e3       	ldi	r25, 0x38	; 56
    13fc:	21 e0       	ldi	r18, 0x01	; 1
    13fe:	81 50       	subi	r24, 0x01	; 1
    1400:	90 40       	sbci	r25, 0x00	; 0
    1402:	20 40       	sbci	r18, 0x00	; 0
    1404:	e1 f7       	brne	.-8      	; 0x13fe <main+0xa68>
    1406:	00 c0       	rjmp	.+0      	; 0x1408 <main+0xa72>
    1408:	00 00       	nop
												_delay_ms(50);
												SPI_master_transmit_and_receive_data(FAN);
    140a:	82 e3       	ldi	r24, 0x32	; 50
    140c:	0e 94 e5 12 	call	0x25ca	; 0x25ca <SPI_master_transmit_and_receive_data>
    1410:	8f e7       	ldi	r24, 0x7F	; 127
    1412:	98 e3       	ldi	r25, 0x38	; 56
    1414:	21 e0       	ldi	r18, 0x01	; 1
    1416:	81 50       	subi	r24, 0x01	; 1
    1418:	90 40       	sbci	r25, 0x00	; 0
    141a:	20 40       	sbci	r18, 0x00	; 0
    141c:	e1 f7       	brne	.-8      	; 0x1416 <main+0xa80>
    141e:	00 c0       	rjmp	.+0      	; 0x1420 <main+0xa8a>
    1420:	00 00       	nop
												_delay_ms(50);
												SPI_master_transmit_and_receive_data(OFF_STATUS);
    1422:	82 e3       	ldi	r24, 0x32	; 50
    1424:	0e 94 e5 12 	call	0x25ca	; 0x25ca <SPI_master_transmit_and_receive_data>
    1428:	8f e7       	ldi	r24, 0x7F	; 127
    142a:	98 e3       	ldi	r25, 0x38	; 56
    142c:	21 e0       	ldi	r18, 0x01	; 1
    142e:	81 50       	subi	r24, 0x01	; 1
    1430:	90 40       	sbci	r25, 0x00	; 0
    1432:	20 40       	sbci	r18, 0x00	; 0
    1434:	e1 f7       	brne	.-8      	; 0x142e <main+0xa98>
    1436:	00 c0       	rjmp	.+0      	; 0x1438 <main+0xaa2>
    1438:	00 00       	nop
    143a:	71 cf       	rjmp	.-286    	; 0x131e <main+0x988>
												_delay_ms(50);
											}
											else if (RET_STATUS==fan_status)
    143c:	80 33       	cpi	r24, 0x30	; 48
    143e:	09 f0       	breq	.+2      	; 0x1442 <main+0xaac>
    1440:	6e cf       	rjmp	.-292    	; 0x131e <main+0x988>
    1442:	03 c0       	rjmp	.+6      	; 0x144a <main+0xab4>
											{
												break;
											}
										}
									}
									else if (RET_STATUS==device)
    1444:	80 33       	cpi	r24, 0x30	; 48
    1446:	09 f4       	brne	.+2      	; 0x144a <main+0xab4>
    1448:	b1 c5       	rjmp	.+2914   	; 0x1fac <main+0x1616>
									}
								}
							}
							else if (ROOM2_MENU==menu)
							{
								while(time_out<TIME_MAX)
    144a:	80 91 31 03 	lds	r24, 0x0331	; 0x800331 <time_out>
    144e:	90 91 32 03 	lds	r25, 0x0332	; 0x800332 <time_out+0x1>
    1452:	a0 91 33 03 	lds	r26, 0x0333	; 0x800333 <time_out+0x2>
    1456:	b0 91 34 03 	lds	r27, 0x0334	; 0x800334 <time_out+0x3>
    145a:	88 35       	cpi	r24, 0x58	; 88
    145c:	92 40       	sbci	r25, 0x02	; 2
    145e:	a1 05       	cpc	r26, r1
    1460:	b1 05       	cpc	r27, r1
    1462:	08 f4       	brcc	.+2      	; 0x1466 <main+0xad0>
    1464:	a4 ce       	rjmp	.-696    	; 0x11ae <main+0x818>
    1466:	a2 c5       	rjmp	.+2884   	; 0x1fac <main+0x1616>
									{
										break;
									}
								}
							}
							else if (ROOM3_MENU==menu)
    1468:	83 33       	cpi	r24, 0x33	; 51
    146a:	09 f0       	breq	.+2      	; 0x146e <main+0xad8>
    146c:	6e c1       	rjmp	.+732    	; 0x174a <main+0xdb4>
    146e:	5e c1       	rjmp	.+700    	; 0x172c <main+0xd96>
							{
								while(time_out<TIME_MAX)
								{
									LCD_clr_screen();
    1470:	0e 94 40 04 	call	0x880	; 0x880 <LCD_clr_screen>
									LCD_send_string("      Room three");
    1474:	8d e2       	ldi	r24, 0x2D	; 45
    1476:	92 e0       	ldi	r25, 0x02	; 2
    1478:	0e 94 33 04 	call	0x866	; 0x866 <LCD_send_string>
									LCD_move_cursor(3,1);
    147c:	61 e0       	ldi	r22, 0x01	; 1
    147e:	83 e0       	ldi	r24, 0x03	; 3
    1480:	0e 94 4a 04 	call	0x894	; 0x894 <LCD_move_cursor>
									LCD_send_string("0-back  1-led  2-fan");
    1484:	8d ee       	ldi	r24, 0xED	; 237
    1486:	91 e0       	ldi	r25, 0x01	; 1
    1488:	0e 94 33 04 	call	0x866	; 0x866 <LCD_send_string>
									device=KEYBAD_user();
    148c:	0e 94 82 04 	call	0x904	; 0x904 <KEYBAD_user>
									if (LED==device)
    1490:	81 33       	cpi	r24, 0x31	; 49
    1492:	09 f0       	breq	.+2      	; 0x1496 <main+0xb00>
    1494:	a3 c0       	rjmp	.+326    	; 0x15dc <main+0xc46>
    1496:	93 c0       	rjmp	.+294    	; 0x15be <main+0xc28>
									{
										while (time_out<TIME_MAX)
										{
											LCD_clr_screen();
    1498:	0e 94 40 04 	call	0x880	; 0x880 <LCD_clr_screen>
											LCD_send_string("      Room three");
    149c:	8d e2       	ldi	r24, 0x2D	; 45
    149e:	92 e0       	ldi	r25, 0x02	; 2
    14a0:	0e 94 33 04 	call	0x866	; 0x866 <LCD_send_string>
											LCD_move_cursor(2,1);
    14a4:	61 e0       	ldi	r22, 0x01	; 1
    14a6:	82 e0       	ldi	r24, 0x02	; 2
    14a8:	0e 94 4a 04 	call	0x894	; 0x894 <LCD_move_cursor>
											LCD_send_string("led:");
    14ac:	82 e0       	ldi	r24, 0x02	; 2
    14ae:	92 e0       	ldi	r25, 0x02	; 2
    14b0:	0e 94 33 04 	call	0x866	; 0x866 <LCD_send_string>
											LCD_move_cursor(3,1);
    14b4:	61 e0       	ldi	r22, 0x01	; 1
    14b6:	83 e0       	ldi	r24, 0x03	; 3
    14b8:	0e 94 4a 04 	call	0x894	; 0x894 <LCD_move_cursor>
											LCD_send_string("0-back 1-on 2-off");
    14bc:	87 e0       	ldi	r24, 0x07	; 7
    14be:	92 e0       	ldi	r25, 0x02	; 2
    14c0:	0e 94 33 04 	call	0x866	; 0x866 <LCD_send_string>
											if (led_R3==ON)
    14c4:	80 91 37 03 	lds	r24, 0x0337	; 0x800337 <led_R3>
    14c8:	81 30       	cpi	r24, 0x01	; 1
    14ca:	89 f4       	brne	.+34     	; 0x14ee <main+0xb58>
											{
												LCD_move_cursor(2,5);
    14cc:	65 e0       	ldi	r22, 0x05	; 5
    14ce:	82 e0       	ldi	r24, 0x02	; 2
    14d0:	0e 94 4a 04 	call	0x894	; 0x894 <LCD_move_cursor>
												LCD_send_string("   ");
    14d4:	8d ec       	ldi	r24, 0xCD	; 205
    14d6:	92 e0       	ldi	r25, 0x02	; 2
    14d8:	0e 94 33 04 	call	0x866	; 0x866 <LCD_send_string>
												LCD_move_cursor(2,5);
    14dc:	65 e0       	ldi	r22, 0x05	; 5
    14de:	82 e0       	ldi	r24, 0x02	; 2
    14e0:	0e 94 4a 04 	call	0x894	; 0x894 <LCD_move_cursor>
												LCD_send_string("on");
    14e4:	81 ef       	ldi	r24, 0xF1	; 241
    14e6:	92 e0       	ldi	r25, 0x02	; 2
    14e8:	0e 94 33 04 	call	0x866	; 0x866 <LCD_send_string>
    14ec:	10 c0       	rjmp	.+32     	; 0x150e <main+0xb78>
											}
											else
											{
												LCD_move_cursor(2,5);
    14ee:	65 e0       	ldi	r22, 0x05	; 5
    14f0:	82 e0       	ldi	r24, 0x02	; 2
    14f2:	0e 94 4a 04 	call	0x894	; 0x894 <LCD_move_cursor>
												LCD_send_string("   ");
    14f6:	8d ec       	ldi	r24, 0xCD	; 205
    14f8:	92 e0       	ldi	r25, 0x02	; 2
    14fa:	0e 94 33 04 	call	0x866	; 0x866 <LCD_send_string>
												LCD_move_cursor(2,5);
    14fe:	65 e0       	ldi	r22, 0x05	; 5
    1500:	82 e0       	ldi	r24, 0x02	; 2
    1502:	0e 94 4a 04 	call	0x894	; 0x894 <LCD_move_cursor>
												LCD_send_string("off");
    1506:	85 e1       	ldi	r24, 0x15	; 21
    1508:	92 e0       	ldi	r25, 0x02	; 2
    150a:	0e 94 33 04 	call	0x866	; 0x866 <LCD_send_string>
											}
											led_status=KEYBAD_user();
    150e:	0e 94 82 04 	call	0x904	; 0x904 <KEYBAD_user>
											if (ON_STATUS==led_status)
    1512:	81 33       	cpi	r24, 0x31	; 49
    1514:	41 f5       	brne	.+80     	; 0x1566 <main+0xbd0>
											{
												led_R3=ON;
    1516:	81 e0       	ldi	r24, 0x01	; 1
    1518:	80 93 37 03 	sts	0x0337, r24	; 0x800337 <led_R3>
												SPI_master_transmit_and_receive_data(ROOM3_MENU);
    151c:	83 e3       	ldi	r24, 0x33	; 51
    151e:	0e 94 e5 12 	call	0x25ca	; 0x25ca <SPI_master_transmit_and_receive_data>
    1522:	8f e7       	ldi	r24, 0x7F	; 127
    1524:	98 e3       	ldi	r25, 0x38	; 56
    1526:	21 e0       	ldi	r18, 0x01	; 1
    1528:	81 50       	subi	r24, 0x01	; 1
    152a:	90 40       	sbci	r25, 0x00	; 0
    152c:	20 40       	sbci	r18, 0x00	; 0
    152e:	e1 f7       	brne	.-8      	; 0x1528 <main+0xb92>
    1530:	00 c0       	rjmp	.+0      	; 0x1532 <main+0xb9c>
    1532:	00 00       	nop
												_delay_ms(50);
												SPI_master_transmit_and_receive_data(LED);
    1534:	81 e3       	ldi	r24, 0x31	; 49
    1536:	0e 94 e5 12 	call	0x25ca	; 0x25ca <SPI_master_transmit_and_receive_data>
    153a:	8f e7       	ldi	r24, 0x7F	; 127
    153c:	98 e3       	ldi	r25, 0x38	; 56
    153e:	21 e0       	ldi	r18, 0x01	; 1
    1540:	81 50       	subi	r24, 0x01	; 1
    1542:	90 40       	sbci	r25, 0x00	; 0
    1544:	20 40       	sbci	r18, 0x00	; 0
    1546:	e1 f7       	brne	.-8      	; 0x1540 <main+0xbaa>
    1548:	00 c0       	rjmp	.+0      	; 0x154a <main+0xbb4>
    154a:	00 00       	nop
												_delay_ms(50);
												SPI_master_transmit_and_receive_data(ON_STATUS);
    154c:	81 e3       	ldi	r24, 0x31	; 49
    154e:	0e 94 e5 12 	call	0x25ca	; 0x25ca <SPI_master_transmit_and_receive_data>
    1552:	8f e7       	ldi	r24, 0x7F	; 127
    1554:	98 e3       	ldi	r25, 0x38	; 56
    1556:	21 e0       	ldi	r18, 0x01	; 1
    1558:	81 50       	subi	r24, 0x01	; 1
    155a:	90 40       	sbci	r25, 0x00	; 0
    155c:	20 40       	sbci	r18, 0x00	; 0
    155e:	e1 f7       	brne	.-8      	; 0x1558 <main+0xbc2>
    1560:	00 c0       	rjmp	.+0      	; 0x1562 <main+0xbcc>
    1562:	00 00       	nop
    1564:	2c c0       	rjmp	.+88     	; 0x15be <main+0xc28>
												_delay_ms(50);
											}
											else if (OFF_STATUS==led_status)
    1566:	82 33       	cpi	r24, 0x32	; 50
    1568:	39 f5       	brne	.+78     	; 0x15b8 <main+0xc22>
											{
												led_R3=OFF;
    156a:	10 92 37 03 	sts	0x0337, r1	; 0x800337 <led_R3>
												SPI_master_transmit_and_receive_data(ROOM3_MENU);
    156e:	83 e3       	ldi	r24, 0x33	; 51
    1570:	0e 94 e5 12 	call	0x25ca	; 0x25ca <SPI_master_transmit_and_receive_data>
    1574:	8f e7       	ldi	r24, 0x7F	; 127
    1576:	98 e3       	ldi	r25, 0x38	; 56
    1578:	21 e0       	ldi	r18, 0x01	; 1
    157a:	81 50       	subi	r24, 0x01	; 1
    157c:	90 40       	sbci	r25, 0x00	; 0
    157e:	20 40       	sbci	r18, 0x00	; 0
    1580:	e1 f7       	brne	.-8      	; 0x157a <main+0xbe4>
    1582:	00 c0       	rjmp	.+0      	; 0x1584 <main+0xbee>
    1584:	00 00       	nop
												_delay_ms(50);
												SPI_master_transmit_and_receive_data(LED);
    1586:	81 e3       	ldi	r24, 0x31	; 49
    1588:	0e 94 e5 12 	call	0x25ca	; 0x25ca <SPI_master_transmit_and_receive_data>
    158c:	8f e7       	ldi	r24, 0x7F	; 127
    158e:	98 e3       	ldi	r25, 0x38	; 56
    1590:	21 e0       	ldi	r18, 0x01	; 1
    1592:	81 50       	subi	r24, 0x01	; 1
    1594:	90 40       	sbci	r25, 0x00	; 0
    1596:	20 40       	sbci	r18, 0x00	; 0
    1598:	e1 f7       	brne	.-8      	; 0x1592 <main+0xbfc>
    159a:	00 c0       	rjmp	.+0      	; 0x159c <main+0xc06>
    159c:	00 00       	nop
												_delay_ms(50);
												SPI_master_transmit_and_receive_data(OFF_STATUS);
    159e:	82 e3       	ldi	r24, 0x32	; 50
    15a0:	0e 94 e5 12 	call	0x25ca	; 0x25ca <SPI_master_transmit_and_receive_data>
    15a4:	8f e7       	ldi	r24, 0x7F	; 127
    15a6:	98 e3       	ldi	r25, 0x38	; 56
    15a8:	21 e0       	ldi	r18, 0x01	; 1
    15aa:	81 50       	subi	r24, 0x01	; 1
    15ac:	90 40       	sbci	r25, 0x00	; 0
    15ae:	20 40       	sbci	r18, 0x00	; 0
    15b0:	e1 f7       	brne	.-8      	; 0x15aa <main+0xc14>
    15b2:	00 c0       	rjmp	.+0      	; 0x15b4 <main+0xc1e>
    15b4:	00 00       	nop
    15b6:	03 c0       	rjmp	.+6      	; 0x15be <main+0xc28>
												_delay_ms(50);
											}
											else if (RET_STATUS==led_status)
    15b8:	80 33       	cpi	r24, 0x30	; 48
    15ba:	09 f4       	brne	.+2      	; 0x15be <main+0xc28>
    15bc:	b7 c0       	rjmp	.+366    	; 0x172c <main+0xd96>
									LCD_move_cursor(3,1);
									LCD_send_string("0-back  1-led  2-fan");
									device=KEYBAD_user();
									if (LED==device)
									{
										while (time_out<TIME_MAX)
    15be:	80 91 31 03 	lds	r24, 0x0331	; 0x800331 <time_out>
    15c2:	90 91 32 03 	lds	r25, 0x0332	; 0x800332 <time_out+0x1>
    15c6:	a0 91 33 03 	lds	r26, 0x0333	; 0x800333 <time_out+0x2>
    15ca:	b0 91 34 03 	lds	r27, 0x0334	; 0x800334 <time_out+0x3>
    15ce:	88 35       	cpi	r24, 0x58	; 88
    15d0:	92 40       	sbci	r25, 0x02	; 2
    15d2:	a1 05       	cpc	r26, r1
    15d4:	b1 05       	cpc	r27, r1
    15d6:	08 f4       	brcc	.+2      	; 0x15da <main+0xc44>
    15d8:	5f cf       	rjmp	.-322    	; 0x1498 <main+0xb02>
    15da:	a8 c0       	rjmp	.+336    	; 0x172c <main+0xd96>
											{
												break;
											}
										}
									}
									else if (FAN==device)
    15dc:	82 33       	cpi	r24, 0x32	; 50
    15de:	09 f0       	breq	.+2      	; 0x15e2 <main+0xc4c>
    15e0:	a2 c0       	rjmp	.+324    	; 0x1726 <main+0xd90>
    15e2:	92 c0       	rjmp	.+292    	; 0x1708 <main+0xd72>
									{
										while (time_out<TIME_MAX)
										{
											LCD_clr_screen();
    15e4:	0e 94 40 04 	call	0x880	; 0x880 <LCD_clr_screen>
											LCD_send_string("      Room three");
    15e8:	8d e2       	ldi	r24, 0x2D	; 45
    15ea:	92 e0       	ldi	r25, 0x02	; 2
    15ec:	0e 94 33 04 	call	0x866	; 0x866 <LCD_send_string>
											LCD_move_cursor(2,1);
    15f0:	61 e0       	ldi	r22, 0x01	; 1
    15f2:	82 e0       	ldi	r24, 0x02	; 2
    15f4:	0e 94 4a 04 	call	0x894	; 0x894 <LCD_move_cursor>
											LCD_send_string("fan:");
    15f8:	89 e1       	ldi	r24, 0x19	; 25
    15fa:	92 e0       	ldi	r25, 0x02	; 2
    15fc:	0e 94 33 04 	call	0x866	; 0x866 <LCD_send_string>
											LCD_move_cursor(3,1);
    1600:	61 e0       	ldi	r22, 0x01	; 1
    1602:	83 e0       	ldi	r24, 0x03	; 3
    1604:	0e 94 4a 04 	call	0x894	; 0x894 <LCD_move_cursor>
											LCD_send_string("0-back 1-on 2-off");
    1608:	87 e0       	ldi	r24, 0x07	; 7
    160a:	92 e0       	ldi	r25, 0x02	; 2
    160c:	0e 94 33 04 	call	0x866	; 0x866 <LCD_send_string>
											if (fan_R3==ON)
    1610:	80 91 2f 03 	lds	r24, 0x032F	; 0x80032f <fan_R3>
    1614:	81 30       	cpi	r24, 0x01	; 1
    1616:	89 f4       	brne	.+34     	; 0x163a <main+0xca4>
											{
												LCD_move_cursor(2,5);
    1618:	65 e0       	ldi	r22, 0x05	; 5
    161a:	82 e0       	ldi	r24, 0x02	; 2
    161c:	0e 94 4a 04 	call	0x894	; 0x894 <LCD_move_cursor>
												LCD_send_string("   ");
    1620:	8d ec       	ldi	r24, 0xCD	; 205
    1622:	92 e0       	ldi	r25, 0x02	; 2
    1624:	0e 94 33 04 	call	0x866	; 0x866 <LCD_send_string>
												LCD_move_cursor(2,5);
    1628:	65 e0       	ldi	r22, 0x05	; 5
    162a:	82 e0       	ldi	r24, 0x02	; 2
    162c:	0e 94 4a 04 	call	0x894	; 0x894 <LCD_move_cursor>
												LCD_send_string("on");
    1630:	81 ef       	ldi	r24, 0xF1	; 241
    1632:	92 e0       	ldi	r25, 0x02	; 2
    1634:	0e 94 33 04 	call	0x866	; 0x866 <LCD_send_string>
    1638:	10 c0       	rjmp	.+32     	; 0x165a <main+0xcc4>
											}
											else
											{
												LCD_move_cursor(2,5);
    163a:	65 e0       	ldi	r22, 0x05	; 5
    163c:	82 e0       	ldi	r24, 0x02	; 2
    163e:	0e 94 4a 04 	call	0x894	; 0x894 <LCD_move_cursor>
												LCD_send_string("   ");
    1642:	8d ec       	ldi	r24, 0xCD	; 205
    1644:	92 e0       	ldi	r25, 0x02	; 2
    1646:	0e 94 33 04 	call	0x866	; 0x866 <LCD_send_string>
												LCD_move_cursor(2,5);
    164a:	65 e0       	ldi	r22, 0x05	; 5
    164c:	82 e0       	ldi	r24, 0x02	; 2
    164e:	0e 94 4a 04 	call	0x894	; 0x894 <LCD_move_cursor>
												LCD_send_string("off");
    1652:	85 e1       	ldi	r24, 0x15	; 21
    1654:	92 e0       	ldi	r25, 0x02	; 2
    1656:	0e 94 33 04 	call	0x866	; 0x866 <LCD_send_string>
											}
											fan_status=KEYBAD_user();
    165a:	0e 94 82 04 	call	0x904	; 0x904 <KEYBAD_user>
											if (ON_STATUS==fan_status)
    165e:	81 33       	cpi	r24, 0x31	; 49
    1660:	41 f5       	brne	.+80     	; 0x16b2 <main+0xd1c>
											{
												fan_R3=ON;
    1662:	81 e0       	ldi	r24, 0x01	; 1
    1664:	80 93 2f 03 	sts	0x032F, r24	; 0x80032f <fan_R3>
												SPI_master_transmit_and_receive_data(ROOM3_MENU);
    1668:	83 e3       	ldi	r24, 0x33	; 51
    166a:	0e 94 e5 12 	call	0x25ca	; 0x25ca <SPI_master_transmit_and_receive_data>
    166e:	8f e7       	ldi	r24, 0x7F	; 127
    1670:	98 e3       	ldi	r25, 0x38	; 56
    1672:	21 e0       	ldi	r18, 0x01	; 1
    1674:	81 50       	subi	r24, 0x01	; 1
    1676:	90 40       	sbci	r25, 0x00	; 0
    1678:	20 40       	sbci	r18, 0x00	; 0
    167a:	e1 f7       	brne	.-8      	; 0x1674 <main+0xcde>
    167c:	00 c0       	rjmp	.+0      	; 0x167e <main+0xce8>
    167e:	00 00       	nop
												_delay_ms(50);
												SPI_master_transmit_and_receive_data(FAN);
    1680:	82 e3       	ldi	r24, 0x32	; 50
    1682:	0e 94 e5 12 	call	0x25ca	; 0x25ca <SPI_master_transmit_and_receive_data>
    1686:	8f e7       	ldi	r24, 0x7F	; 127
    1688:	98 e3       	ldi	r25, 0x38	; 56
    168a:	21 e0       	ldi	r18, 0x01	; 1
    168c:	81 50       	subi	r24, 0x01	; 1
    168e:	90 40       	sbci	r25, 0x00	; 0
    1690:	20 40       	sbci	r18, 0x00	; 0
    1692:	e1 f7       	brne	.-8      	; 0x168c <main+0xcf6>
    1694:	00 c0       	rjmp	.+0      	; 0x1696 <main+0xd00>
    1696:	00 00       	nop
												_delay_ms(50);
												SPI_master_transmit_and_receive_data(ON_STATUS);
    1698:	81 e3       	ldi	r24, 0x31	; 49
    169a:	0e 94 e5 12 	call	0x25ca	; 0x25ca <SPI_master_transmit_and_receive_data>
    169e:	8f e7       	ldi	r24, 0x7F	; 127
    16a0:	98 e3       	ldi	r25, 0x38	; 56
    16a2:	21 e0       	ldi	r18, 0x01	; 1
    16a4:	81 50       	subi	r24, 0x01	; 1
    16a6:	90 40       	sbci	r25, 0x00	; 0
    16a8:	20 40       	sbci	r18, 0x00	; 0
    16aa:	e1 f7       	brne	.-8      	; 0x16a4 <main+0xd0e>
    16ac:	00 c0       	rjmp	.+0      	; 0x16ae <main+0xd18>
    16ae:	00 00       	nop
    16b0:	2b c0       	rjmp	.+86     	; 0x1708 <main+0xd72>
												_delay_ms(50);
											}
											else if (OFF_STATUS==fan_status)
    16b2:	82 33       	cpi	r24, 0x32	; 50
    16b4:	39 f5       	brne	.+78     	; 0x1704 <main+0xd6e>
											{
												fan_R3=OFF;
    16b6:	10 92 2f 03 	sts	0x032F, r1	; 0x80032f <fan_R3>
												SPI_master_transmit_and_receive_data(ROOM3_MENU);
    16ba:	83 e3       	ldi	r24, 0x33	; 51
    16bc:	0e 94 e5 12 	call	0x25ca	; 0x25ca <SPI_master_transmit_and_receive_data>
    16c0:	8f e7       	ldi	r24, 0x7F	; 127
    16c2:	98 e3       	ldi	r25, 0x38	; 56
    16c4:	21 e0       	ldi	r18, 0x01	; 1
    16c6:	81 50       	subi	r24, 0x01	; 1
    16c8:	90 40       	sbci	r25, 0x00	; 0
    16ca:	20 40       	sbci	r18, 0x00	; 0
    16cc:	e1 f7       	brne	.-8      	; 0x16c6 <main+0xd30>
    16ce:	00 c0       	rjmp	.+0      	; 0x16d0 <main+0xd3a>
    16d0:	00 00       	nop
												_delay_ms(50);
												SPI_master_transmit_and_receive_data(FAN);
    16d2:	82 e3       	ldi	r24, 0x32	; 50
    16d4:	0e 94 e5 12 	call	0x25ca	; 0x25ca <SPI_master_transmit_and_receive_data>
    16d8:	8f e7       	ldi	r24, 0x7F	; 127
    16da:	98 e3       	ldi	r25, 0x38	; 56
    16dc:	21 e0       	ldi	r18, 0x01	; 1
    16de:	81 50       	subi	r24, 0x01	; 1
    16e0:	90 40       	sbci	r25, 0x00	; 0
    16e2:	20 40       	sbci	r18, 0x00	; 0
    16e4:	e1 f7       	brne	.-8      	; 0x16de <main+0xd48>
    16e6:	00 c0       	rjmp	.+0      	; 0x16e8 <main+0xd52>
    16e8:	00 00       	nop
												_delay_ms(50);
												SPI_master_transmit_and_receive_data(OFF_STATUS);
    16ea:	82 e3       	ldi	r24, 0x32	; 50
    16ec:	0e 94 e5 12 	call	0x25ca	; 0x25ca <SPI_master_transmit_and_receive_data>
    16f0:	8f e7       	ldi	r24, 0x7F	; 127
    16f2:	98 e3       	ldi	r25, 0x38	; 56
    16f4:	21 e0       	ldi	r18, 0x01	; 1
    16f6:	81 50       	subi	r24, 0x01	; 1
    16f8:	90 40       	sbci	r25, 0x00	; 0
    16fa:	20 40       	sbci	r18, 0x00	; 0
    16fc:	e1 f7       	brne	.-8      	; 0x16f6 <main+0xd60>
    16fe:	00 c0       	rjmp	.+0      	; 0x1700 <main+0xd6a>
    1700:	00 00       	nop
    1702:	02 c0       	rjmp	.+4      	; 0x1708 <main+0xd72>
												_delay_ms(50);
											}
											else if (RET_STATUS==fan_status)
    1704:	80 33       	cpi	r24, 0x30	; 48
    1706:	91 f0       	breq	.+36     	; 0x172c <main+0xd96>
											}
										}
									}
									else if (FAN==device)
									{
										while (time_out<TIME_MAX)
    1708:	80 91 31 03 	lds	r24, 0x0331	; 0x800331 <time_out>
    170c:	90 91 32 03 	lds	r25, 0x0332	; 0x800332 <time_out+0x1>
    1710:	a0 91 33 03 	lds	r26, 0x0333	; 0x800333 <time_out+0x2>
    1714:	b0 91 34 03 	lds	r27, 0x0334	; 0x800334 <time_out+0x3>
    1718:	88 35       	cpi	r24, 0x58	; 88
    171a:	92 40       	sbci	r25, 0x02	; 2
    171c:	a1 05       	cpc	r26, r1
    171e:	b1 05       	cpc	r27, r1
    1720:	08 f4       	brcc	.+2      	; 0x1724 <main+0xd8e>
    1722:	60 cf       	rjmp	.-320    	; 0x15e4 <main+0xc4e>
    1724:	03 c0       	rjmp	.+6      	; 0x172c <main+0xd96>
											{
												break;
											}
										}
									}
									else if (RET_STATUS==device)
    1726:	80 33       	cpi	r24, 0x30	; 48
    1728:	09 f4       	brne	.+2      	; 0x172c <main+0xd96>
    172a:	40 c4       	rjmp	.+2176   	; 0x1fac <main+0x1616>
									}
								}
							}
							else if (ROOM3_MENU==menu)
							{
								while(time_out<TIME_MAX)
    172c:	80 91 31 03 	lds	r24, 0x0331	; 0x800331 <time_out>
    1730:	90 91 32 03 	lds	r25, 0x0332	; 0x800332 <time_out+0x1>
    1734:	a0 91 33 03 	lds	r26, 0x0333	; 0x800333 <time_out+0x2>
    1738:	b0 91 34 03 	lds	r27, 0x0334	; 0x800334 <time_out+0x3>
    173c:	88 35       	cpi	r24, 0x58	; 88
    173e:	92 40       	sbci	r25, 0x02	; 2
    1740:	a1 05       	cpc	r26, r1
    1742:	b1 05       	cpc	r27, r1
    1744:	08 f4       	brcc	.+2      	; 0x1748 <main+0xdb2>
    1746:	94 ce       	rjmp	.-728    	; 0x1470 <main+0xada>
    1748:	31 c4       	rjmp	.+2146   	; 0x1fac <main+0x1616>
									{
										break;
									}
								}
							}
							else if (ROOM4_MENU==menu)
    174a:	84 33       	cpi	r24, 0x34	; 52
    174c:	09 f0       	breq	.+2      	; 0x1750 <main+0xdba>
    174e:	77 c1       	rjmp	.+750    	; 0x1a3e <main+0x10a8>
    1750:	67 c1       	rjmp	.+718    	; 0x1a20 <main+0x108a>
							{
								while(time_out<TIME_MAX)
								{
									LCD_clr_screen();
    1752:	0e 94 40 04 	call	0x880	; 0x880 <LCD_clr_screen>
									LCD_send_string("      Room four");
    1756:	8e e3       	ldi	r24, 0x3E	; 62
    1758:	92 e0       	ldi	r25, 0x02	; 2
    175a:	0e 94 33 04 	call	0x866	; 0x866 <LCD_send_string>
									LCD_move_cursor(3,1);
    175e:	61 e0       	ldi	r22, 0x01	; 1
    1760:	83 e0       	ldi	r24, 0x03	; 3
    1762:	0e 94 4a 04 	call	0x894	; 0x894 <LCD_move_cursor>
									LCD_send_string("0-back  1-led  2-fan");
    1766:	8d ee       	ldi	r24, 0xED	; 237
    1768:	91 e0       	ldi	r25, 0x01	; 1
    176a:	0e 94 33 04 	call	0x866	; 0x866 <LCD_send_string>
									device=KEYBAD_user();
    176e:	0e 94 82 04 	call	0x904	; 0x904 <KEYBAD_user>
									if (LED==device)
    1772:	81 33       	cpi	r24, 0x31	; 49
    1774:	09 f0       	breq	.+2      	; 0x1778 <main+0xde2>
    1776:	ac c0       	rjmp	.+344    	; 0x18d0 <main+0xf3a>
    1778:	9c c0       	rjmp	.+312    	; 0x18b2 <main+0xf1c>
									{
										while (time_out<TIME_MAX)
										{
											LCD_clr_screen();
    177a:	0e 94 40 04 	call	0x880	; 0x880 <LCD_clr_screen>
											LCD_send_string("      Room four");
    177e:	8e e3       	ldi	r24, 0x3E	; 62
    1780:	92 e0       	ldi	r25, 0x02	; 2
    1782:	0e 94 33 04 	call	0x866	; 0x866 <LCD_send_string>
											LCD_move_cursor(2,1);
    1786:	61 e0       	ldi	r22, 0x01	; 1
    1788:	82 e0       	ldi	r24, 0x02	; 2
    178a:	0e 94 4a 04 	call	0x894	; 0x894 <LCD_move_cursor>
											LCD_send_string("led:");
    178e:	82 e0       	ldi	r24, 0x02	; 2
    1790:	92 e0       	ldi	r25, 0x02	; 2
    1792:	0e 94 33 04 	call	0x866	; 0x866 <LCD_send_string>
											LCD_move_cursor(3,1);
    1796:	61 e0       	ldi	r22, 0x01	; 1
    1798:	83 e0       	ldi	r24, 0x03	; 3
    179a:	0e 94 4a 04 	call	0x894	; 0x894 <LCD_move_cursor>
											LCD_send_string("0-back 1-on 2-off");
    179e:	87 e0       	ldi	r24, 0x07	; 7
    17a0:	92 e0       	ldi	r25, 0x02	; 2
    17a2:	0e 94 33 04 	call	0x866	; 0x866 <LCD_send_string>
											if (led_R4==ON)
    17a6:	80 91 39 03 	lds	r24, 0x0339	; 0x800339 <led_R4>
    17aa:	81 30       	cpi	r24, 0x01	; 1
    17ac:	89 f4       	brne	.+34     	; 0x17d0 <main+0xe3a>
											{
												LCD_move_cursor(2,5);
    17ae:	65 e0       	ldi	r22, 0x05	; 5
    17b0:	82 e0       	ldi	r24, 0x02	; 2
    17b2:	0e 94 4a 04 	call	0x894	; 0x894 <LCD_move_cursor>
												LCD_send_string("   ");
    17b6:	8d ec       	ldi	r24, 0xCD	; 205
    17b8:	92 e0       	ldi	r25, 0x02	; 2
    17ba:	0e 94 33 04 	call	0x866	; 0x866 <LCD_send_string>
												LCD_move_cursor(2,5);
    17be:	65 e0       	ldi	r22, 0x05	; 5
    17c0:	82 e0       	ldi	r24, 0x02	; 2
    17c2:	0e 94 4a 04 	call	0x894	; 0x894 <LCD_move_cursor>
												LCD_send_string("on");
    17c6:	81 ef       	ldi	r24, 0xF1	; 241
    17c8:	92 e0       	ldi	r25, 0x02	; 2
    17ca:	0e 94 33 04 	call	0x866	; 0x866 <LCD_send_string>
    17ce:	10 c0       	rjmp	.+32     	; 0x17f0 <main+0xe5a>
											}
											else
											{
												LCD_move_cursor(2,5);
    17d0:	65 e0       	ldi	r22, 0x05	; 5
    17d2:	82 e0       	ldi	r24, 0x02	; 2
    17d4:	0e 94 4a 04 	call	0x894	; 0x894 <LCD_move_cursor>
												LCD_send_string("   ");
    17d8:	8d ec       	ldi	r24, 0xCD	; 205
    17da:	92 e0       	ldi	r25, 0x02	; 2
    17dc:	0e 94 33 04 	call	0x866	; 0x866 <LCD_send_string>
												LCD_move_cursor(2,5);
    17e0:	65 e0       	ldi	r22, 0x05	; 5
    17e2:	82 e0       	ldi	r24, 0x02	; 2
    17e4:	0e 94 4a 04 	call	0x894	; 0x894 <LCD_move_cursor>
												LCD_send_string("off");
    17e8:	85 e1       	ldi	r24, 0x15	; 21
    17ea:	92 e0       	ldi	r25, 0x02	; 2
    17ec:	0e 94 33 04 	call	0x866	; 0x866 <LCD_send_string>
											}
											led_status=KEYBAD_user();
    17f0:	0e 94 82 04 	call	0x904	; 0x904 <KEYBAD_user>
											if (ON_STATUS==led_status)
    17f4:	81 33       	cpi	r24, 0x31	; 49
    17f6:	41 f5       	brne	.+80     	; 0x1848 <main+0xeb2>
											{
												led_R4=ON;
    17f8:	81 e0       	ldi	r24, 0x01	; 1
    17fa:	80 93 39 03 	sts	0x0339, r24	; 0x800339 <led_R4>
												SPI_master_transmit_and_receive_data(ROOM4_MENU);
    17fe:	84 e3       	ldi	r24, 0x34	; 52
    1800:	0e 94 e5 12 	call	0x25ca	; 0x25ca <SPI_master_transmit_and_receive_data>
    1804:	8f e7       	ldi	r24, 0x7F	; 127
    1806:	98 e3       	ldi	r25, 0x38	; 56
    1808:	21 e0       	ldi	r18, 0x01	; 1
    180a:	81 50       	subi	r24, 0x01	; 1
    180c:	90 40       	sbci	r25, 0x00	; 0
    180e:	20 40       	sbci	r18, 0x00	; 0
    1810:	e1 f7       	brne	.-8      	; 0x180a <main+0xe74>
    1812:	00 c0       	rjmp	.+0      	; 0x1814 <main+0xe7e>
    1814:	00 00       	nop
												_delay_ms(50);
												SPI_master_transmit_and_receive_data(LED);
    1816:	81 e3       	ldi	r24, 0x31	; 49
    1818:	0e 94 e5 12 	call	0x25ca	; 0x25ca <SPI_master_transmit_and_receive_data>
    181c:	8f e7       	ldi	r24, 0x7F	; 127
    181e:	98 e3       	ldi	r25, 0x38	; 56
    1820:	21 e0       	ldi	r18, 0x01	; 1
    1822:	81 50       	subi	r24, 0x01	; 1
    1824:	90 40       	sbci	r25, 0x00	; 0
    1826:	20 40       	sbci	r18, 0x00	; 0
    1828:	e1 f7       	brne	.-8      	; 0x1822 <main+0xe8c>
    182a:	00 c0       	rjmp	.+0      	; 0x182c <main+0xe96>
    182c:	00 00       	nop
												_delay_ms(50);
												SPI_master_transmit_and_receive_data(ON_STATUS);
    182e:	81 e3       	ldi	r24, 0x31	; 49
    1830:	0e 94 e5 12 	call	0x25ca	; 0x25ca <SPI_master_transmit_and_receive_data>
    1834:	8f e7       	ldi	r24, 0x7F	; 127
    1836:	98 e3       	ldi	r25, 0x38	; 56
    1838:	21 e0       	ldi	r18, 0x01	; 1
    183a:	81 50       	subi	r24, 0x01	; 1
    183c:	90 40       	sbci	r25, 0x00	; 0
    183e:	20 40       	sbci	r18, 0x00	; 0
    1840:	e1 f7       	brne	.-8      	; 0x183a <main+0xea4>
    1842:	00 c0       	rjmp	.+0      	; 0x1844 <main+0xeae>
    1844:	00 00       	nop
    1846:	35 c0       	rjmp	.+106    	; 0x18b2 <main+0xf1c>
												_delay_ms(50);
											}
											else if (OFF_STATUS==led_status)
    1848:	82 33       	cpi	r24, 0x32	; 50
    184a:	81 f5       	brne	.+96     	; 0x18ac <main+0xf16>
											{
												led_R4=OFF;
    184c:	10 92 39 03 	sts	0x0339, r1	; 0x800339 <led_R4>
												SPI_master_transmit_and_receive_data(ROOM4_MENU);
    1850:	84 e3       	ldi	r24, 0x34	; 52
    1852:	0e 94 e5 12 	call	0x25ca	; 0x25ca <SPI_master_transmit_and_receive_data>
    1856:	8f e7       	ldi	r24, 0x7F	; 127
    1858:	98 e3       	ldi	r25, 0x38	; 56
    185a:	21 e0       	ldi	r18, 0x01	; 1
    185c:	81 50       	subi	r24, 0x01	; 1
    185e:	90 40       	sbci	r25, 0x00	; 0
    1860:	20 40       	sbci	r18, 0x00	; 0
    1862:	e1 f7       	brne	.-8      	; 0x185c <main+0xec6>
    1864:	00 c0       	rjmp	.+0      	; 0x1866 <main+0xed0>
    1866:	00 00       	nop
    1868:	8f e7       	ldi	r24, 0x7F	; 127
    186a:	98 e3       	ldi	r25, 0x38	; 56
    186c:	21 e0       	ldi	r18, 0x01	; 1
    186e:	81 50       	subi	r24, 0x01	; 1
    1870:	90 40       	sbci	r25, 0x00	; 0
    1872:	20 40       	sbci	r18, 0x00	; 0
    1874:	e1 f7       	brne	.-8      	; 0x186e <main+0xed8>
    1876:	00 c0       	rjmp	.+0      	; 0x1878 <main+0xee2>
    1878:	00 00       	nop
												_delay_ms(50);_delay_ms(50);
												SPI_master_transmit_and_receive_data(LED);
    187a:	81 e3       	ldi	r24, 0x31	; 49
    187c:	0e 94 e5 12 	call	0x25ca	; 0x25ca <SPI_master_transmit_and_receive_data>
    1880:	8f e7       	ldi	r24, 0x7F	; 127
    1882:	98 e3       	ldi	r25, 0x38	; 56
    1884:	21 e0       	ldi	r18, 0x01	; 1
    1886:	81 50       	subi	r24, 0x01	; 1
    1888:	90 40       	sbci	r25, 0x00	; 0
    188a:	20 40       	sbci	r18, 0x00	; 0
    188c:	e1 f7       	brne	.-8      	; 0x1886 <main+0xef0>
    188e:	00 c0       	rjmp	.+0      	; 0x1890 <main+0xefa>
    1890:	00 00       	nop
												_delay_ms(50);
												SPI_master_transmit_and_receive_data(OFF_STATUS);
    1892:	82 e3       	ldi	r24, 0x32	; 50
    1894:	0e 94 e5 12 	call	0x25ca	; 0x25ca <SPI_master_transmit_and_receive_data>
    1898:	8f e7       	ldi	r24, 0x7F	; 127
    189a:	98 e3       	ldi	r25, 0x38	; 56
    189c:	21 e0       	ldi	r18, 0x01	; 1
    189e:	81 50       	subi	r24, 0x01	; 1
    18a0:	90 40       	sbci	r25, 0x00	; 0
    18a2:	20 40       	sbci	r18, 0x00	; 0
    18a4:	e1 f7       	brne	.-8      	; 0x189e <main+0xf08>
    18a6:	00 c0       	rjmp	.+0      	; 0x18a8 <main+0xf12>
    18a8:	00 00       	nop
    18aa:	03 c0       	rjmp	.+6      	; 0x18b2 <main+0xf1c>
												_delay_ms(50);
											}
											else if (RET_STATUS==led_status)
    18ac:	80 33       	cpi	r24, 0x30	; 48
    18ae:	09 f4       	brne	.+2      	; 0x18b2 <main+0xf1c>
    18b0:	b7 c0       	rjmp	.+366    	; 0x1a20 <main+0x108a>
									LCD_move_cursor(3,1);
									LCD_send_string("0-back  1-led  2-fan");
									device=KEYBAD_user();
									if (LED==device)
									{
										while (time_out<TIME_MAX)
    18b2:	80 91 31 03 	lds	r24, 0x0331	; 0x800331 <time_out>
    18b6:	90 91 32 03 	lds	r25, 0x0332	; 0x800332 <time_out+0x1>
    18ba:	a0 91 33 03 	lds	r26, 0x0333	; 0x800333 <time_out+0x2>
    18be:	b0 91 34 03 	lds	r27, 0x0334	; 0x800334 <time_out+0x3>
    18c2:	88 35       	cpi	r24, 0x58	; 88
    18c4:	92 40       	sbci	r25, 0x02	; 2
    18c6:	a1 05       	cpc	r26, r1
    18c8:	b1 05       	cpc	r27, r1
    18ca:	08 f4       	brcc	.+2      	; 0x18ce <main+0xf38>
    18cc:	56 cf       	rjmp	.-340    	; 0x177a <main+0xde4>
    18ce:	a8 c0       	rjmp	.+336    	; 0x1a20 <main+0x108a>
											{
												break;
											}
										}
									}
									else if (FAN==device)
    18d0:	82 33       	cpi	r24, 0x32	; 50
    18d2:	09 f0       	breq	.+2      	; 0x18d6 <main+0xf40>
    18d4:	a2 c0       	rjmp	.+324    	; 0x1a1a <main+0x1084>
    18d6:	92 c0       	rjmp	.+292    	; 0x19fc <main+0x1066>
									{
										while (time_out<TIME_MAX)
										{
											LCD_clr_screen();
    18d8:	0e 94 40 04 	call	0x880	; 0x880 <LCD_clr_screen>
											LCD_send_string("      Room four");
    18dc:	8e e3       	ldi	r24, 0x3E	; 62
    18de:	92 e0       	ldi	r25, 0x02	; 2
    18e0:	0e 94 33 04 	call	0x866	; 0x866 <LCD_send_string>
											LCD_move_cursor(2,1);
    18e4:	61 e0       	ldi	r22, 0x01	; 1
    18e6:	82 e0       	ldi	r24, 0x02	; 2
    18e8:	0e 94 4a 04 	call	0x894	; 0x894 <LCD_move_cursor>
											LCD_send_string("fan:");
    18ec:	89 e1       	ldi	r24, 0x19	; 25
    18ee:	92 e0       	ldi	r25, 0x02	; 2
    18f0:	0e 94 33 04 	call	0x866	; 0x866 <LCD_send_string>
											LCD_move_cursor(3,1);
    18f4:	61 e0       	ldi	r22, 0x01	; 1
    18f6:	83 e0       	ldi	r24, 0x03	; 3
    18f8:	0e 94 4a 04 	call	0x894	; 0x894 <LCD_move_cursor>
											LCD_send_string("0-back 1-on 2-off");
    18fc:	87 e0       	ldi	r24, 0x07	; 7
    18fe:	92 e0       	ldi	r25, 0x02	; 2
    1900:	0e 94 33 04 	call	0x866	; 0x866 <LCD_send_string>
											if (fan_R4==ON)
    1904:	80 91 36 03 	lds	r24, 0x0336	; 0x800336 <fan_R4>
    1908:	81 30       	cpi	r24, 0x01	; 1
    190a:	89 f4       	brne	.+34     	; 0x192e <main+0xf98>
											{
												LCD_move_cursor(2,5);
    190c:	65 e0       	ldi	r22, 0x05	; 5
    190e:	82 e0       	ldi	r24, 0x02	; 2
    1910:	0e 94 4a 04 	call	0x894	; 0x894 <LCD_move_cursor>
												LCD_send_string("   ");
    1914:	8d ec       	ldi	r24, 0xCD	; 205
    1916:	92 e0       	ldi	r25, 0x02	; 2
    1918:	0e 94 33 04 	call	0x866	; 0x866 <LCD_send_string>
												LCD_move_cursor(2,5);
    191c:	65 e0       	ldi	r22, 0x05	; 5
    191e:	82 e0       	ldi	r24, 0x02	; 2
    1920:	0e 94 4a 04 	call	0x894	; 0x894 <LCD_move_cursor>
												LCD_send_string("on");
    1924:	81 ef       	ldi	r24, 0xF1	; 241
    1926:	92 e0       	ldi	r25, 0x02	; 2
    1928:	0e 94 33 04 	call	0x866	; 0x866 <LCD_send_string>
    192c:	10 c0       	rjmp	.+32     	; 0x194e <main+0xfb8>
											}
											else
											{
												LCD_move_cursor(2,5);
    192e:	65 e0       	ldi	r22, 0x05	; 5
    1930:	82 e0       	ldi	r24, 0x02	; 2
    1932:	0e 94 4a 04 	call	0x894	; 0x894 <LCD_move_cursor>
												LCD_send_string("   ");
    1936:	8d ec       	ldi	r24, 0xCD	; 205
    1938:	92 e0       	ldi	r25, 0x02	; 2
    193a:	0e 94 33 04 	call	0x866	; 0x866 <LCD_send_string>
												LCD_move_cursor(2,5);
    193e:	65 e0       	ldi	r22, 0x05	; 5
    1940:	82 e0       	ldi	r24, 0x02	; 2
    1942:	0e 94 4a 04 	call	0x894	; 0x894 <LCD_move_cursor>
												LCD_send_string("off");
    1946:	85 e1       	ldi	r24, 0x15	; 21
    1948:	92 e0       	ldi	r25, 0x02	; 2
    194a:	0e 94 33 04 	call	0x866	; 0x866 <LCD_send_string>
											}
											fan_status=KEYBAD_user();
    194e:	0e 94 82 04 	call	0x904	; 0x904 <KEYBAD_user>
											if (ON_STATUS==fan_status)
    1952:	81 33       	cpi	r24, 0x31	; 49
    1954:	41 f5       	brne	.+80     	; 0x19a6 <main+0x1010>
											{
												fan_R4=ON;
    1956:	81 e0       	ldi	r24, 0x01	; 1
    1958:	80 93 36 03 	sts	0x0336, r24	; 0x800336 <fan_R4>
												SPI_master_transmit_and_receive_data(ROOM4_MENU);
    195c:	84 e3       	ldi	r24, 0x34	; 52
    195e:	0e 94 e5 12 	call	0x25ca	; 0x25ca <SPI_master_transmit_and_receive_data>
    1962:	8f e7       	ldi	r24, 0x7F	; 127
    1964:	98 e3       	ldi	r25, 0x38	; 56
    1966:	21 e0       	ldi	r18, 0x01	; 1
    1968:	81 50       	subi	r24, 0x01	; 1
    196a:	90 40       	sbci	r25, 0x00	; 0
    196c:	20 40       	sbci	r18, 0x00	; 0
    196e:	e1 f7       	brne	.-8      	; 0x1968 <main+0xfd2>
    1970:	00 c0       	rjmp	.+0      	; 0x1972 <main+0xfdc>
    1972:	00 00       	nop
												_delay_ms(50);
												SPI_master_transmit_and_receive_data(FAN);
    1974:	82 e3       	ldi	r24, 0x32	; 50
    1976:	0e 94 e5 12 	call	0x25ca	; 0x25ca <SPI_master_transmit_and_receive_data>
    197a:	8f e7       	ldi	r24, 0x7F	; 127
    197c:	98 e3       	ldi	r25, 0x38	; 56
    197e:	21 e0       	ldi	r18, 0x01	; 1
    1980:	81 50       	subi	r24, 0x01	; 1
    1982:	90 40       	sbci	r25, 0x00	; 0
    1984:	20 40       	sbci	r18, 0x00	; 0
    1986:	e1 f7       	brne	.-8      	; 0x1980 <main+0xfea>
    1988:	00 c0       	rjmp	.+0      	; 0x198a <main+0xff4>
    198a:	00 00       	nop
												_delay_ms(50);
												SPI_master_transmit_and_receive_data(ON_STATUS);
    198c:	81 e3       	ldi	r24, 0x31	; 49
    198e:	0e 94 e5 12 	call	0x25ca	; 0x25ca <SPI_master_transmit_and_receive_data>
    1992:	8f e7       	ldi	r24, 0x7F	; 127
    1994:	98 e3       	ldi	r25, 0x38	; 56
    1996:	21 e0       	ldi	r18, 0x01	; 1
    1998:	81 50       	subi	r24, 0x01	; 1
    199a:	90 40       	sbci	r25, 0x00	; 0
    199c:	20 40       	sbci	r18, 0x00	; 0
    199e:	e1 f7       	brne	.-8      	; 0x1998 <main+0x1002>
    19a0:	00 c0       	rjmp	.+0      	; 0x19a2 <main+0x100c>
    19a2:	00 00       	nop
    19a4:	2b c0       	rjmp	.+86     	; 0x19fc <main+0x1066>
												_delay_ms(50);
											}
											else if (OFF_STATUS==fan_status)
    19a6:	82 33       	cpi	r24, 0x32	; 50
    19a8:	39 f5       	brne	.+78     	; 0x19f8 <main+0x1062>
											{
												fan_R4=OFF;
    19aa:	10 92 36 03 	sts	0x0336, r1	; 0x800336 <fan_R4>
												SPI_master_transmit_and_receive_data(ROOM4_MENU);
    19ae:	84 e3       	ldi	r24, 0x34	; 52
    19b0:	0e 94 e5 12 	call	0x25ca	; 0x25ca <SPI_master_transmit_and_receive_data>
    19b4:	8f e7       	ldi	r24, 0x7F	; 127
    19b6:	98 e3       	ldi	r25, 0x38	; 56
    19b8:	21 e0       	ldi	r18, 0x01	; 1
    19ba:	81 50       	subi	r24, 0x01	; 1
    19bc:	90 40       	sbci	r25, 0x00	; 0
    19be:	20 40       	sbci	r18, 0x00	; 0
    19c0:	e1 f7       	brne	.-8      	; 0x19ba <main+0x1024>
    19c2:	00 c0       	rjmp	.+0      	; 0x19c4 <main+0x102e>
    19c4:	00 00       	nop
												_delay_ms(50);
												SPI_master_transmit_and_receive_data(FAN);
    19c6:	82 e3       	ldi	r24, 0x32	; 50
    19c8:	0e 94 e5 12 	call	0x25ca	; 0x25ca <SPI_master_transmit_and_receive_data>
    19cc:	8f e7       	ldi	r24, 0x7F	; 127
    19ce:	98 e3       	ldi	r25, 0x38	; 56
    19d0:	21 e0       	ldi	r18, 0x01	; 1
    19d2:	81 50       	subi	r24, 0x01	; 1
    19d4:	90 40       	sbci	r25, 0x00	; 0
    19d6:	20 40       	sbci	r18, 0x00	; 0
    19d8:	e1 f7       	brne	.-8      	; 0x19d2 <main+0x103c>
    19da:	00 c0       	rjmp	.+0      	; 0x19dc <main+0x1046>
    19dc:	00 00       	nop
												_delay_ms(50);
												SPI_master_transmit_and_receive_data(OFF_STATUS);
    19de:	82 e3       	ldi	r24, 0x32	; 50
    19e0:	0e 94 e5 12 	call	0x25ca	; 0x25ca <SPI_master_transmit_and_receive_data>
    19e4:	8f e7       	ldi	r24, 0x7F	; 127
    19e6:	98 e3       	ldi	r25, 0x38	; 56
    19e8:	21 e0       	ldi	r18, 0x01	; 1
    19ea:	81 50       	subi	r24, 0x01	; 1
    19ec:	90 40       	sbci	r25, 0x00	; 0
    19ee:	20 40       	sbci	r18, 0x00	; 0
    19f0:	e1 f7       	brne	.-8      	; 0x19ea <main+0x1054>
    19f2:	00 c0       	rjmp	.+0      	; 0x19f4 <main+0x105e>
    19f4:	00 00       	nop
    19f6:	02 c0       	rjmp	.+4      	; 0x19fc <main+0x1066>
												_delay_ms(50);
											}
											else if (RET_STATUS==fan_status)
    19f8:	80 33       	cpi	r24, 0x30	; 48
    19fa:	91 f0       	breq	.+36     	; 0x1a20 <main+0x108a>
											}
										}
									}
									else if (FAN==device)
									{
										while (time_out<TIME_MAX)
    19fc:	80 91 31 03 	lds	r24, 0x0331	; 0x800331 <time_out>
    1a00:	90 91 32 03 	lds	r25, 0x0332	; 0x800332 <time_out+0x1>
    1a04:	a0 91 33 03 	lds	r26, 0x0333	; 0x800333 <time_out+0x2>
    1a08:	b0 91 34 03 	lds	r27, 0x0334	; 0x800334 <time_out+0x3>
    1a0c:	88 35       	cpi	r24, 0x58	; 88
    1a0e:	92 40       	sbci	r25, 0x02	; 2
    1a10:	a1 05       	cpc	r26, r1
    1a12:	b1 05       	cpc	r27, r1
    1a14:	08 f4       	brcc	.+2      	; 0x1a18 <main+0x1082>
    1a16:	60 cf       	rjmp	.-320    	; 0x18d8 <main+0xf42>
    1a18:	03 c0       	rjmp	.+6      	; 0x1a20 <main+0x108a>
											{
												break;
											}
										}
									}
									else if (RET_STATUS==device)
    1a1a:	80 33       	cpi	r24, 0x30	; 48
    1a1c:	09 f4       	brne	.+2      	; 0x1a20 <main+0x108a>
    1a1e:	c6 c2       	rjmp	.+1420   	; 0x1fac <main+0x1616>
									}
								}
							}
							else if (ROOM4_MENU==menu)
							{
								while(time_out<TIME_MAX)
    1a20:	80 91 31 03 	lds	r24, 0x0331	; 0x800331 <time_out>
    1a24:	90 91 32 03 	lds	r25, 0x0332	; 0x800332 <time_out+0x1>
    1a28:	a0 91 33 03 	lds	r26, 0x0333	; 0x800333 <time_out+0x2>
    1a2c:	b0 91 34 03 	lds	r27, 0x0334	; 0x800334 <time_out+0x3>
    1a30:	88 35       	cpi	r24, 0x58	; 88
    1a32:	92 40       	sbci	r25, 0x02	; 2
    1a34:	a1 05       	cpc	r26, r1
    1a36:	b1 05       	cpc	r27, r1
    1a38:	08 f4       	brcc	.+2      	; 0x1a3c <main+0x10a6>
    1a3a:	8b ce       	rjmp	.-746    	; 0x1752 <main+0xdbc>
    1a3c:	b7 c2       	rjmp	.+1390   	; 0x1fac <main+0x1616>
									{
										break;
									}
								}
							}
							else if (MORE_MENU==menu)
    1a3e:	81 34       	cpi	r24, 0x41	; 65
    1a40:	09 f0       	breq	.+2      	; 0x1a44 <main+0x10ae>
    1a42:	b2 c2       	rjmp	.+1380   	; 0x1fa8 <main+0x1612>
    1a44:	a2 c2       	rjmp	.+1348   	; 0x1f8a <main+0x15f4>
							{
								while(time_out<TIME_MAX)
								{
									LCD_clr_screen();
    1a46:	0e 94 40 04 	call	0x880	; 0x880 <LCD_clr_screen>
									LCD_send_string(" 5-Home Door  6-TV ");
    1a4a:	8e e4       	ldi	r24, 0x4E	; 78
    1a4c:	92 e0       	ldi	r25, 0x02	; 2
    1a4e:	0e 94 33 04 	call	0x866	; 0x866 <LCD_send_string>
									LCD_move_cursor(2,1);
    1a52:	61 e0       	ldi	r22, 0x01	; 1
    1a54:	82 e0       	ldi	r24, 0x02	; 2
    1a56:	0e 94 4a 04 	call	0x894	; 0x894 <LCD_move_cursor>
									LCD_send_string(" 7-air_conditioning");
    1a5a:	82 e6       	ldi	r24, 0x62	; 98
    1a5c:	92 e0       	ldi	r25, 0x02	; 2
    1a5e:	0e 94 33 04 	call	0x866	; 0x866 <LCD_send_string>
									LCD_move_cursor(3,1);
    1a62:	61 e0       	ldi	r22, 0x01	; 1
    1a64:	83 e0       	ldi	r24, 0x03	; 3
    1a66:	0e 94 4a 04 	call	0x894	; 0x894 <LCD_move_cursor>
									LCD_send_string(" 8-change password");
    1a6a:	86 e7       	ldi	r24, 0x76	; 118
    1a6c:	92 e0       	ldi	r25, 0x02	; 2
    1a6e:	0e 94 33 04 	call	0x866	; 0x866 <LCD_send_string>
									LCD_move_cursor(4,1);
    1a72:	61 e0       	ldi	r22, 0x01	; 1
    1a74:	84 e0       	ldi	r24, 0x04	; 4
    1a76:	0e 94 4a 04 	call	0x894	; 0x894 <LCD_move_cursor>
									LCD_send_string(" 9-Temp      0-back");
    1a7a:	89 e8       	ldi	r24, 0x89	; 137
    1a7c:	92 e0       	ldi	r25, 0x02	; 2
    1a7e:	0e 94 33 04 	call	0x866	; 0x866 <LCD_send_string>
									menu=KEYBAD_user();
    1a82:	0e 94 82 04 	call	0x904	; 0x904 <KEYBAD_user>
									if (HOME_DOOR==menu)
    1a86:	85 33       	cpi	r24, 0x35	; 53
    1a88:	09 f0       	breq	.+2      	; 0x1a8c <main+0x10f6>
    1a8a:	8b c0       	rjmp	.+278    	; 0x1ba2 <main+0x120c>
									{
										LCD_clr_screen();
    1a8c:	0e 94 40 04 	call	0x880	; 0x880 <LCD_clr_screen>
										LCD_send_string("   Home Door");
    1a90:	8d e9       	ldi	r24, 0x9D	; 157
    1a92:	92 e0       	ldi	r25, 0x02	; 2
    1a94:	0e 94 33 04 	call	0x866	; 0x866 <LCD_send_string>
										LCD_move_cursor(2,1);
    1a98:	61 e0       	ldi	r22, 0x01	; 1
    1a9a:	82 e0       	ldi	r24, 0x02	; 2
    1a9c:	0e 94 4a 04 	call	0x894	; 0x894 <LCD_move_cursor>
										LCD_send_string("status:");
    1aa0:	8a ea       	ldi	r24, 0xAA	; 170
    1aa2:	92 e0       	ldi	r25, 0x02	; 2
    1aa4:	0e 94 33 04 	call	0x866	; 0x866 <LCD_send_string>
										LCD_move_cursor(3,1);
    1aa8:	61 e0       	ldi	r22, 0x01	; 1
    1aaa:	83 e0       	ldi	r24, 0x03	; 3
    1aac:	0e 94 4a 04 	call	0x894	; 0x894 <LCD_move_cursor>
										LCD_send_string("0-back 1-on 2-closed");
    1ab0:	82 eb       	ldi	r24, 0xB2	; 178
    1ab2:	92 e0       	ldi	r25, 0x02	; 2
    1ab4:	0e 94 33 04 	call	0x866	; 0x866 <LCD_send_string>
										while(time_out<TIME_MAX)
    1ab8:	65 c0       	rjmp	.+202    	; 0x1b84 <main+0x11ee>
										{
											if (door==ON)
    1aba:	80 91 3b 03 	lds	r24, 0x033B	; 0x80033b <door>
    1abe:	81 30       	cpi	r24, 0x01	; 1
    1ac0:	89 f4       	brne	.+34     	; 0x1ae4 <main+0x114e>
											{
												LCD_move_cursor(2,8);
    1ac2:	68 e0       	ldi	r22, 0x08	; 8
    1ac4:	82 e0       	ldi	r24, 0x02	; 2
    1ac6:	0e 94 4a 04 	call	0x894	; 0x894 <LCD_move_cursor>
												LCD_send_string("         ");
    1aca:	87 ec       	ldi	r24, 0xC7	; 199
    1acc:	92 e0       	ldi	r25, 0x02	; 2
    1ace:	0e 94 33 04 	call	0x866	; 0x866 <LCD_send_string>
												LCD_move_cursor(2,8);
    1ad2:	68 e0       	ldi	r22, 0x08	; 8
    1ad4:	82 e0       	ldi	r24, 0x02	; 2
    1ad6:	0e 94 4a 04 	call	0x894	; 0x894 <LCD_move_cursor>
												LCD_send_string("on");
    1ada:	81 ef       	ldi	r24, 0xF1	; 241
    1adc:	92 e0       	ldi	r25, 0x02	; 2
    1ade:	0e 94 33 04 	call	0x866	; 0x866 <LCD_send_string>
    1ae2:	10 c0       	rjmp	.+32     	; 0x1b04 <main+0x116e>
											}
											else
											{
												LCD_move_cursor(2,8);
    1ae4:	68 e0       	ldi	r22, 0x08	; 8
    1ae6:	82 e0       	ldi	r24, 0x02	; 2
    1ae8:	0e 94 4a 04 	call	0x894	; 0x894 <LCD_move_cursor>
												LCD_send_string("        ");
    1aec:	88 ec       	ldi	r24, 0xC8	; 200
    1aee:	92 e0       	ldi	r25, 0x02	; 2
    1af0:	0e 94 33 04 	call	0x866	; 0x866 <LCD_send_string>
												LCD_move_cursor(2,8);
    1af4:	68 e0       	ldi	r22, 0x08	; 8
    1af6:	82 e0       	ldi	r24, 0x02	; 2
    1af8:	0e 94 4a 04 	call	0x894	; 0x894 <LCD_move_cursor>
												LCD_send_string("closed");
    1afc:	8f ef       	ldi	r24, 0xFF	; 255
    1afe:	90 e0       	ldi	r25, 0x00	; 0
    1b00:	0e 94 33 04 	call	0x866	; 0x866 <LCD_send_string>
											}
											room_status=KEYBAD_user();
    1b04:	0e 94 82 04 	call	0x904	; 0x904 <KEYBAD_user>
											if (ON_STATUS==room_status)
    1b08:	81 33       	cpi	r24, 0x31	; 49
    1b0a:	e1 f4       	brne	.+56     	; 0x1b44 <main+0x11ae>
											{
												door=ON;
    1b0c:	81 e0       	ldi	r24, 0x01	; 1
    1b0e:	80 93 3b 03 	sts	0x033B, r24	; 0x80033b <door>
												SPI_master_transmit_and_receive_data(HOME_DOOR);
    1b12:	85 e3       	ldi	r24, 0x35	; 53
    1b14:	0e 94 e5 12 	call	0x25ca	; 0x25ca <SPI_master_transmit_and_receive_data>
    1b18:	8f e7       	ldi	r24, 0x7F	; 127
    1b1a:	98 e3       	ldi	r25, 0x38	; 56
    1b1c:	21 e0       	ldi	r18, 0x01	; 1
    1b1e:	81 50       	subi	r24, 0x01	; 1
    1b20:	90 40       	sbci	r25, 0x00	; 0
    1b22:	20 40       	sbci	r18, 0x00	; 0
    1b24:	e1 f7       	brne	.-8      	; 0x1b1e <main+0x1188>
    1b26:	00 c0       	rjmp	.+0      	; 0x1b28 <main+0x1192>
    1b28:	00 00       	nop
												_delay_ms(50);
												SPI_master_transmit_and_receive_data(ON_STATUS);
    1b2a:	81 e3       	ldi	r24, 0x31	; 49
    1b2c:	0e 94 e5 12 	call	0x25ca	; 0x25ca <SPI_master_transmit_and_receive_data>
    1b30:	8f e7       	ldi	r24, 0x7F	; 127
    1b32:	98 e3       	ldi	r25, 0x38	; 56
    1b34:	21 e0       	ldi	r18, 0x01	; 1
    1b36:	81 50       	subi	r24, 0x01	; 1
    1b38:	90 40       	sbci	r25, 0x00	; 0
    1b3a:	20 40       	sbci	r18, 0x00	; 0
    1b3c:	e1 f7       	brne	.-8      	; 0x1b36 <main+0x11a0>
    1b3e:	00 c0       	rjmp	.+0      	; 0x1b40 <main+0x11aa>
    1b40:	00 00       	nop
    1b42:	20 c0       	rjmp	.+64     	; 0x1b84 <main+0x11ee>
												_delay_ms(50);
											}
											else if (OFF_STATUS==room_status)
    1b44:	82 33       	cpi	r24, 0x32	; 50
    1b46:	d9 f4       	brne	.+54     	; 0x1b7e <main+0x11e8>
											{
												door=OFF;
    1b48:	10 92 3b 03 	sts	0x033B, r1	; 0x80033b <door>
												SPI_master_transmit_and_receive_data(HOME_DOOR);
    1b4c:	85 e3       	ldi	r24, 0x35	; 53
    1b4e:	0e 94 e5 12 	call	0x25ca	; 0x25ca <SPI_master_transmit_and_receive_data>
    1b52:	8f e7       	ldi	r24, 0x7F	; 127
    1b54:	98 e3       	ldi	r25, 0x38	; 56
    1b56:	21 e0       	ldi	r18, 0x01	; 1
    1b58:	81 50       	subi	r24, 0x01	; 1
    1b5a:	90 40       	sbci	r25, 0x00	; 0
    1b5c:	20 40       	sbci	r18, 0x00	; 0
    1b5e:	e1 f7       	brne	.-8      	; 0x1b58 <main+0x11c2>
    1b60:	00 c0       	rjmp	.+0      	; 0x1b62 <main+0x11cc>
    1b62:	00 00       	nop
												_delay_ms(50);
												SPI_master_transmit_and_receive_data(OFF_STATUS);
    1b64:	82 e3       	ldi	r24, 0x32	; 50
    1b66:	0e 94 e5 12 	call	0x25ca	; 0x25ca <SPI_master_transmit_and_receive_data>
    1b6a:	8f e7       	ldi	r24, 0x7F	; 127
    1b6c:	98 e3       	ldi	r25, 0x38	; 56
    1b6e:	21 e0       	ldi	r18, 0x01	; 1
    1b70:	81 50       	subi	r24, 0x01	; 1
    1b72:	90 40       	sbci	r25, 0x00	; 0
    1b74:	20 40       	sbci	r18, 0x00	; 0
    1b76:	e1 f7       	brne	.-8      	; 0x1b70 <main+0x11da>
    1b78:	00 c0       	rjmp	.+0      	; 0x1b7a <main+0x11e4>
    1b7a:	00 00       	nop
    1b7c:	03 c0       	rjmp	.+6      	; 0x1b84 <main+0x11ee>
												_delay_ms(50);
											}
											else if (RET_STATUS==room_status)
    1b7e:	80 33       	cpi	r24, 0x30	; 48
    1b80:	09 f4       	brne	.+2      	; 0x1b84 <main+0x11ee>
    1b82:	03 c2       	rjmp	.+1030   	; 0x1f8a <main+0x15f4>
										LCD_send_string("   Home Door");
										LCD_move_cursor(2,1);
										LCD_send_string("status:");
										LCD_move_cursor(3,1);
										LCD_send_string("0-back 1-on 2-closed");
										while(time_out<TIME_MAX)
    1b84:	80 91 31 03 	lds	r24, 0x0331	; 0x800331 <time_out>
    1b88:	90 91 32 03 	lds	r25, 0x0332	; 0x800332 <time_out+0x1>
    1b8c:	a0 91 33 03 	lds	r26, 0x0333	; 0x800333 <time_out+0x2>
    1b90:	b0 91 34 03 	lds	r27, 0x0334	; 0x800334 <time_out+0x3>
    1b94:	88 35       	cpi	r24, 0x58	; 88
    1b96:	92 40       	sbci	r25, 0x02	; 2
    1b98:	a1 05       	cpc	r26, r1
    1b9a:	b1 05       	cpc	r27, r1
    1b9c:	08 f4       	brcc	.+2      	; 0x1ba0 <main+0x120a>
    1b9e:	8d cf       	rjmp	.-230    	; 0x1aba <main+0x1124>
    1ba0:	f4 c1       	rjmp	.+1000   	; 0x1f8a <main+0x15f4>
											{
												break;
											}
										}
									}
									else if (AIRCONDITIONING_MENU==menu)
    1ba2:	87 33       	cpi	r24, 0x37	; 55
    1ba4:	09 f0       	breq	.+2      	; 0x1ba8 <main+0x1212>
    1ba6:	8b c0       	rjmp	.+278    	; 0x1cbe <main+0x1328>
									{
										LCD_clr_screen();
    1ba8:	0e 94 40 04 	call	0x880	; 0x880 <LCD_clr_screen>
										LCD_send_string("Central coditioning");
    1bac:	81 ed       	ldi	r24, 0xD1	; 209
    1bae:	92 e0       	ldi	r25, 0x02	; 2
    1bb0:	0e 94 33 04 	call	0x866	; 0x866 <LCD_send_string>
										LCD_move_cursor(2,1);
    1bb4:	61 e0       	ldi	r22, 0x01	; 1
    1bb6:	82 e0       	ldi	r24, 0x02	; 2
    1bb8:	0e 94 4a 04 	call	0x894	; 0x894 <LCD_move_cursor>
										LCD_send_string("status:");
    1bbc:	8a ea       	ldi	r24, 0xAA	; 170
    1bbe:	92 e0       	ldi	r25, 0x02	; 2
    1bc0:	0e 94 33 04 	call	0x866	; 0x866 <LCD_send_string>
										LCD_move_cursor(3,1);
    1bc4:	61 e0       	ldi	r22, 0x01	; 1
    1bc6:	83 e0       	ldi	r24, 0x03	; 3
    1bc8:	0e 94 4a 04 	call	0x894	; 0x894 <LCD_move_cursor>
										LCD_send_string("0-back 1-on 2-off");
    1bcc:	87 e0       	ldi	r24, 0x07	; 7
    1bce:	92 e0       	ldi	r25, 0x02	; 2
    1bd0:	0e 94 33 04 	call	0x866	; 0x866 <LCD_send_string>
										while(time_out<TIME_MAX)
    1bd4:	65 c0       	rjmp	.+202    	; 0x1ca0 <main+0x130a>
										{
											if (air_cond==ON)
    1bd6:	80 91 35 03 	lds	r24, 0x0335	; 0x800335 <air_cond>
    1bda:	81 30       	cpi	r24, 0x01	; 1
    1bdc:	89 f4       	brne	.+34     	; 0x1c00 <main+0x126a>
											{
												LCD_move_cursor(2,8);
    1bde:	68 e0       	ldi	r22, 0x08	; 8
    1be0:	82 e0       	ldi	r24, 0x02	; 2
    1be2:	0e 94 4a 04 	call	0x894	; 0x894 <LCD_move_cursor>
												LCD_send_string("   ");
    1be6:	8d ec       	ldi	r24, 0xCD	; 205
    1be8:	92 e0       	ldi	r25, 0x02	; 2
    1bea:	0e 94 33 04 	call	0x866	; 0x866 <LCD_send_string>
												LCD_move_cursor(2,8);
    1bee:	68 e0       	ldi	r22, 0x08	; 8
    1bf0:	82 e0       	ldi	r24, 0x02	; 2
    1bf2:	0e 94 4a 04 	call	0x894	; 0x894 <LCD_move_cursor>
												LCD_send_string("on");
    1bf6:	81 ef       	ldi	r24, 0xF1	; 241
    1bf8:	92 e0       	ldi	r25, 0x02	; 2
    1bfa:	0e 94 33 04 	call	0x866	; 0x866 <LCD_send_string>
    1bfe:	10 c0       	rjmp	.+32     	; 0x1c20 <main+0x128a>
											}
											else
											{
												LCD_move_cursor(2,8);
    1c00:	68 e0       	ldi	r22, 0x08	; 8
    1c02:	82 e0       	ldi	r24, 0x02	; 2
    1c04:	0e 94 4a 04 	call	0x894	; 0x894 <LCD_move_cursor>
												LCD_send_string("   ");
    1c08:	8d ec       	ldi	r24, 0xCD	; 205
    1c0a:	92 e0       	ldi	r25, 0x02	; 2
    1c0c:	0e 94 33 04 	call	0x866	; 0x866 <LCD_send_string>
												LCD_move_cursor(2,8);
    1c10:	68 e0       	ldi	r22, 0x08	; 8
    1c12:	82 e0       	ldi	r24, 0x02	; 2
    1c14:	0e 94 4a 04 	call	0x894	; 0x894 <LCD_move_cursor>
												LCD_send_string("off");
    1c18:	85 e1       	ldi	r24, 0x15	; 21
    1c1a:	92 e0       	ldi	r25, 0x02	; 2
    1c1c:	0e 94 33 04 	call	0x866	; 0x866 <LCD_send_string>
											}
											room_status=KEYBAD_user();
    1c20:	0e 94 82 04 	call	0x904	; 0x904 <KEYBAD_user>
											if (ON_STATUS==room_status)
    1c24:	81 33       	cpi	r24, 0x31	; 49
    1c26:	e1 f4       	brne	.+56     	; 0x1c60 <main+0x12ca>
											{
												air_cond=ON;
    1c28:	81 e0       	ldi	r24, 0x01	; 1
    1c2a:	80 93 35 03 	sts	0x0335, r24	; 0x800335 <air_cond>
												SPI_master_transmit_and_receive_data(AIRCONDITIONING_MENU);
    1c2e:	87 e3       	ldi	r24, 0x37	; 55
    1c30:	0e 94 e5 12 	call	0x25ca	; 0x25ca <SPI_master_transmit_and_receive_data>
    1c34:	8f e7       	ldi	r24, 0x7F	; 127
    1c36:	98 e3       	ldi	r25, 0x38	; 56
    1c38:	21 e0       	ldi	r18, 0x01	; 1
    1c3a:	81 50       	subi	r24, 0x01	; 1
    1c3c:	90 40       	sbci	r25, 0x00	; 0
    1c3e:	20 40       	sbci	r18, 0x00	; 0
    1c40:	e1 f7       	brne	.-8      	; 0x1c3a <main+0x12a4>
    1c42:	00 c0       	rjmp	.+0      	; 0x1c44 <main+0x12ae>
    1c44:	00 00       	nop
												_delay_ms(50);
												SPI_master_transmit_and_receive_data(ON_STATUS);
    1c46:	81 e3       	ldi	r24, 0x31	; 49
    1c48:	0e 94 e5 12 	call	0x25ca	; 0x25ca <SPI_master_transmit_and_receive_data>
    1c4c:	8f e7       	ldi	r24, 0x7F	; 127
    1c4e:	98 e3       	ldi	r25, 0x38	; 56
    1c50:	21 e0       	ldi	r18, 0x01	; 1
    1c52:	81 50       	subi	r24, 0x01	; 1
    1c54:	90 40       	sbci	r25, 0x00	; 0
    1c56:	20 40       	sbci	r18, 0x00	; 0
    1c58:	e1 f7       	brne	.-8      	; 0x1c52 <main+0x12bc>
    1c5a:	00 c0       	rjmp	.+0      	; 0x1c5c <main+0x12c6>
    1c5c:	00 00       	nop
    1c5e:	20 c0       	rjmp	.+64     	; 0x1ca0 <main+0x130a>
												_delay_ms(50);
											}
											else if (OFF_STATUS==room_status)
    1c60:	82 33       	cpi	r24, 0x32	; 50
    1c62:	d9 f4       	brne	.+54     	; 0x1c9a <main+0x1304>
											{
												air_cond=OFF;
    1c64:	10 92 35 03 	sts	0x0335, r1	; 0x800335 <air_cond>
												SPI_master_transmit_and_receive_data(AIRCONDITIONING_MENU);
    1c68:	87 e3       	ldi	r24, 0x37	; 55
    1c6a:	0e 94 e5 12 	call	0x25ca	; 0x25ca <SPI_master_transmit_and_receive_data>
    1c6e:	8f e7       	ldi	r24, 0x7F	; 127
    1c70:	98 e3       	ldi	r25, 0x38	; 56
    1c72:	21 e0       	ldi	r18, 0x01	; 1
    1c74:	81 50       	subi	r24, 0x01	; 1
    1c76:	90 40       	sbci	r25, 0x00	; 0
    1c78:	20 40       	sbci	r18, 0x00	; 0
    1c7a:	e1 f7       	brne	.-8      	; 0x1c74 <main+0x12de>
    1c7c:	00 c0       	rjmp	.+0      	; 0x1c7e <main+0x12e8>
    1c7e:	00 00       	nop
												_delay_ms(50);
												SPI_master_transmit_and_receive_data(OFF_STATUS);
    1c80:	82 e3       	ldi	r24, 0x32	; 50
    1c82:	0e 94 e5 12 	call	0x25ca	; 0x25ca <SPI_master_transmit_and_receive_data>
    1c86:	8f e7       	ldi	r24, 0x7F	; 127
    1c88:	98 e3       	ldi	r25, 0x38	; 56
    1c8a:	21 e0       	ldi	r18, 0x01	; 1
    1c8c:	81 50       	subi	r24, 0x01	; 1
    1c8e:	90 40       	sbci	r25, 0x00	; 0
    1c90:	20 40       	sbci	r18, 0x00	; 0
    1c92:	e1 f7       	brne	.-8      	; 0x1c8c <main+0x12f6>
    1c94:	00 c0       	rjmp	.+0      	; 0x1c96 <main+0x1300>
    1c96:	00 00       	nop
    1c98:	03 c0       	rjmp	.+6      	; 0x1ca0 <main+0x130a>
												_delay_ms(50);
											}
											else if (RET_STATUS==room_status)
    1c9a:	80 33       	cpi	r24, 0x30	; 48
    1c9c:	09 f4       	brne	.+2      	; 0x1ca0 <main+0x130a>
    1c9e:	75 c1       	rjmp	.+746    	; 0x1f8a <main+0x15f4>
										LCD_send_string("Central coditioning");
										LCD_move_cursor(2,1);
										LCD_send_string("status:");
										LCD_move_cursor(3,1);
										LCD_send_string("0-back 1-on 2-off");
										while(time_out<TIME_MAX)
    1ca0:	80 91 31 03 	lds	r24, 0x0331	; 0x800331 <time_out>
    1ca4:	90 91 32 03 	lds	r25, 0x0332	; 0x800332 <time_out+0x1>
    1ca8:	a0 91 33 03 	lds	r26, 0x0333	; 0x800333 <time_out+0x2>
    1cac:	b0 91 34 03 	lds	r27, 0x0334	; 0x800334 <time_out+0x3>
    1cb0:	88 35       	cpi	r24, 0x58	; 88
    1cb2:	92 40       	sbci	r25, 0x02	; 2
    1cb4:	a1 05       	cpc	r26, r1
    1cb6:	b1 05       	cpc	r27, r1
    1cb8:	08 f4       	brcc	.+2      	; 0x1cbc <main+0x1326>
    1cba:	8d cf       	rjmp	.-230    	; 0x1bd6 <main+0x1240>
    1cbc:	66 c1       	rjmp	.+716    	; 0x1f8a <main+0x15f4>
											{
												break;
											}
										}
									}
									else if (TV_MENU==menu)
    1cbe:	86 33       	cpi	r24, 0x36	; 54
    1cc0:	09 f0       	breq	.+2      	; 0x1cc4 <main+0x132e>
    1cc2:	8b c0       	rjmp	.+278    	; 0x1dda <main+0x1444>
									{
										LCD_clr_screen();
    1cc4:	0e 94 40 04 	call	0x880	; 0x880 <LCD_clr_screen>
										LCD_send_string("    Television");
    1cc8:	85 ee       	ldi	r24, 0xE5	; 229
    1cca:	92 e0       	ldi	r25, 0x02	; 2
    1ccc:	0e 94 33 04 	call	0x866	; 0x866 <LCD_send_string>
										LCD_move_cursor(2,1);
    1cd0:	61 e0       	ldi	r22, 0x01	; 1
    1cd2:	82 e0       	ldi	r24, 0x02	; 2
    1cd4:	0e 94 4a 04 	call	0x894	; 0x894 <LCD_move_cursor>
										LCD_send_string("status:");
    1cd8:	8a ea       	ldi	r24, 0xAA	; 170
    1cda:	92 e0       	ldi	r25, 0x02	; 2
    1cdc:	0e 94 33 04 	call	0x866	; 0x866 <LCD_send_string>
										LCD_move_cursor(3,1);
    1ce0:	61 e0       	ldi	r22, 0x01	; 1
    1ce2:	83 e0       	ldi	r24, 0x03	; 3
    1ce4:	0e 94 4a 04 	call	0x894	; 0x894 <LCD_move_cursor>
										LCD_send_string("0-back 1-on 2-off");
    1ce8:	87 e0       	ldi	r24, 0x07	; 7
    1cea:	92 e0       	ldi	r25, 0x02	; 2
    1cec:	0e 94 33 04 	call	0x866	; 0x866 <LCD_send_string>
										while(time_out<TIME_MAX)
    1cf0:	65 c0       	rjmp	.+202    	; 0x1dbc <main+0x1426>
										{
											if (tv==ON)
    1cf2:	80 91 2e 03 	lds	r24, 0x032E	; 0x80032e <__data_end>
    1cf6:	81 30       	cpi	r24, 0x01	; 1
    1cf8:	89 f4       	brne	.+34     	; 0x1d1c <main+0x1386>
											{
												LCD_move_cursor(2,8);
    1cfa:	68 e0       	ldi	r22, 0x08	; 8
    1cfc:	82 e0       	ldi	r24, 0x02	; 2
    1cfe:	0e 94 4a 04 	call	0x894	; 0x894 <LCD_move_cursor>
												LCD_send_string("   ");
    1d02:	8d ec       	ldi	r24, 0xCD	; 205
    1d04:	92 e0       	ldi	r25, 0x02	; 2
    1d06:	0e 94 33 04 	call	0x866	; 0x866 <LCD_send_string>
												LCD_move_cursor(2,8);
    1d0a:	68 e0       	ldi	r22, 0x08	; 8
    1d0c:	82 e0       	ldi	r24, 0x02	; 2
    1d0e:	0e 94 4a 04 	call	0x894	; 0x894 <LCD_move_cursor>
												LCD_send_string("on");
    1d12:	81 ef       	ldi	r24, 0xF1	; 241
    1d14:	92 e0       	ldi	r25, 0x02	; 2
    1d16:	0e 94 33 04 	call	0x866	; 0x866 <LCD_send_string>
    1d1a:	10 c0       	rjmp	.+32     	; 0x1d3c <main+0x13a6>
											}
											else
											{
												LCD_move_cursor(2,8);
    1d1c:	68 e0       	ldi	r22, 0x08	; 8
    1d1e:	82 e0       	ldi	r24, 0x02	; 2
    1d20:	0e 94 4a 04 	call	0x894	; 0x894 <LCD_move_cursor>
												LCD_send_string("   ");
    1d24:	8d ec       	ldi	r24, 0xCD	; 205
    1d26:	92 e0       	ldi	r25, 0x02	; 2
    1d28:	0e 94 33 04 	call	0x866	; 0x866 <LCD_send_string>
												LCD_move_cursor(2,8);
    1d2c:	68 e0       	ldi	r22, 0x08	; 8
    1d2e:	82 e0       	ldi	r24, 0x02	; 2
    1d30:	0e 94 4a 04 	call	0x894	; 0x894 <LCD_move_cursor>
												LCD_send_string("off");
    1d34:	85 e1       	ldi	r24, 0x15	; 21
    1d36:	92 e0       	ldi	r25, 0x02	; 2
    1d38:	0e 94 33 04 	call	0x866	; 0x866 <LCD_send_string>
											}
											room_status=KEYBAD_user();
    1d3c:	0e 94 82 04 	call	0x904	; 0x904 <KEYBAD_user>
											if (ON_STATUS==room_status)
    1d40:	81 33       	cpi	r24, 0x31	; 49
    1d42:	e1 f4       	brne	.+56     	; 0x1d7c <main+0x13e6>
											{
												tv=ON;
    1d44:	81 e0       	ldi	r24, 0x01	; 1
    1d46:	80 93 2e 03 	sts	0x032E, r24	; 0x80032e <__data_end>
												SPI_master_transmit_and_receive_data(TV_MENU);
    1d4a:	86 e3       	ldi	r24, 0x36	; 54
    1d4c:	0e 94 e5 12 	call	0x25ca	; 0x25ca <SPI_master_transmit_and_receive_data>
    1d50:	8f e7       	ldi	r24, 0x7F	; 127
    1d52:	98 e3       	ldi	r25, 0x38	; 56
    1d54:	21 e0       	ldi	r18, 0x01	; 1
    1d56:	81 50       	subi	r24, 0x01	; 1
    1d58:	90 40       	sbci	r25, 0x00	; 0
    1d5a:	20 40       	sbci	r18, 0x00	; 0
    1d5c:	e1 f7       	brne	.-8      	; 0x1d56 <main+0x13c0>
    1d5e:	00 c0       	rjmp	.+0      	; 0x1d60 <main+0x13ca>
    1d60:	00 00       	nop
												_delay_ms(50);
												SPI_master_transmit_and_receive_data(ON_STATUS);
    1d62:	81 e3       	ldi	r24, 0x31	; 49
    1d64:	0e 94 e5 12 	call	0x25ca	; 0x25ca <SPI_master_transmit_and_receive_data>
    1d68:	8f e7       	ldi	r24, 0x7F	; 127
    1d6a:	98 e3       	ldi	r25, 0x38	; 56
    1d6c:	21 e0       	ldi	r18, 0x01	; 1
    1d6e:	81 50       	subi	r24, 0x01	; 1
    1d70:	90 40       	sbci	r25, 0x00	; 0
    1d72:	20 40       	sbci	r18, 0x00	; 0
    1d74:	e1 f7       	brne	.-8      	; 0x1d6e <main+0x13d8>
    1d76:	00 c0       	rjmp	.+0      	; 0x1d78 <main+0x13e2>
    1d78:	00 00       	nop
    1d7a:	20 c0       	rjmp	.+64     	; 0x1dbc <main+0x1426>
												_delay_ms(50);
											}
											else if (OFF_STATUS==room_status)
    1d7c:	82 33       	cpi	r24, 0x32	; 50
    1d7e:	d9 f4       	brne	.+54     	; 0x1db6 <main+0x1420>
											{
												tv=OFF;
    1d80:	10 92 2e 03 	sts	0x032E, r1	; 0x80032e <__data_end>
												SPI_master_transmit_and_receive_data(TV_MENU);
    1d84:	86 e3       	ldi	r24, 0x36	; 54
    1d86:	0e 94 e5 12 	call	0x25ca	; 0x25ca <SPI_master_transmit_and_receive_data>
    1d8a:	8f e7       	ldi	r24, 0x7F	; 127
    1d8c:	98 e3       	ldi	r25, 0x38	; 56
    1d8e:	21 e0       	ldi	r18, 0x01	; 1
    1d90:	81 50       	subi	r24, 0x01	; 1
    1d92:	90 40       	sbci	r25, 0x00	; 0
    1d94:	20 40       	sbci	r18, 0x00	; 0
    1d96:	e1 f7       	brne	.-8      	; 0x1d90 <main+0x13fa>
    1d98:	00 c0       	rjmp	.+0      	; 0x1d9a <main+0x1404>
    1d9a:	00 00       	nop
												_delay_ms(50);
												SPI_master_transmit_and_receive_data(OFF_STATUS);
    1d9c:	82 e3       	ldi	r24, 0x32	; 50
    1d9e:	0e 94 e5 12 	call	0x25ca	; 0x25ca <SPI_master_transmit_and_receive_data>
    1da2:	8f e7       	ldi	r24, 0x7F	; 127
    1da4:	98 e3       	ldi	r25, 0x38	; 56
    1da6:	21 e0       	ldi	r18, 0x01	; 1
    1da8:	81 50       	subi	r24, 0x01	; 1
    1daa:	90 40       	sbci	r25, 0x00	; 0
    1dac:	20 40       	sbci	r18, 0x00	; 0
    1dae:	e1 f7       	brne	.-8      	; 0x1da8 <main+0x1412>
    1db0:	00 c0       	rjmp	.+0      	; 0x1db2 <main+0x141c>
    1db2:	00 00       	nop
    1db4:	03 c0       	rjmp	.+6      	; 0x1dbc <main+0x1426>
												_delay_ms(50);
											}
											else if (RET_STATUS==room_status)
    1db6:	80 33       	cpi	r24, 0x30	; 48
    1db8:	09 f4       	brne	.+2      	; 0x1dbc <main+0x1426>
    1dba:	e7 c0       	rjmp	.+462    	; 0x1f8a <main+0x15f4>
										LCD_send_string("    Television");
										LCD_move_cursor(2,1);
										LCD_send_string("status:");
										LCD_move_cursor(3,1);
										LCD_send_string("0-back 1-on 2-off");
										while(time_out<TIME_MAX)
    1dbc:	80 91 31 03 	lds	r24, 0x0331	; 0x800331 <time_out>
    1dc0:	90 91 32 03 	lds	r25, 0x0332	; 0x800332 <time_out+0x1>
    1dc4:	a0 91 33 03 	lds	r26, 0x0333	; 0x800333 <time_out+0x2>
    1dc8:	b0 91 34 03 	lds	r27, 0x0334	; 0x800334 <time_out+0x3>
    1dcc:	88 35       	cpi	r24, 0x58	; 88
    1dce:	92 40       	sbci	r25, 0x02	; 2
    1dd0:	a1 05       	cpc	r26, r1
    1dd2:	b1 05       	cpc	r27, r1
    1dd4:	08 f4       	brcc	.+2      	; 0x1dd8 <main+0x1442>
    1dd6:	8d cf       	rjmp	.-230    	; 0x1cf2 <main+0x135c>
    1dd8:	d8 c0       	rjmp	.+432    	; 0x1f8a <main+0x15f4>
											{
												break;
											}
										}
									}
									else if (TEMP_MENU==menu)
    1dda:	89 33       	cpi	r24, 0x39	; 57
    1ddc:	09 f0       	breq	.+2      	; 0x1de0 <main+0x144a>
    1dde:	7c c0       	rjmp	.+248    	; 0x1ed8 <main+0x1542>
									{
										LCD_clr_screen();
    1de0:	0e 94 40 04 	call	0x880	; 0x880 <LCD_clr_screen>
										LCD_move_cursor(2,1);
    1de4:	61 e0       	ldi	r22, 0x01	; 1
    1de6:	82 e0       	ldi	r24, 0x02	; 2
    1de8:	0e 94 4a 04 	call	0x894	; 0x894 <LCD_move_cursor>
										LCD_send_string("    Temperature");
    1dec:	84 ef       	ldi	r24, 0xF4	; 244
    1dee:	92 e0       	ldi	r25, 0x02	; 2
    1df0:	0e 94 33 04 	call	0x866	; 0x866 <LCD_send_string>
										while(time_out<TIME_MAX)
    1df4:	62 c0       	rjmp	.+196    	; 0x1eba <main+0x1524>
										{
											do
											{
												SPI_master_transmit_and_receive_data(TEMP_MENU);
    1df6:	89 e3       	ldi	r24, 0x39	; 57
    1df8:	0e 94 e5 12 	call	0x25ca	; 0x25ca <SPI_master_transmit_and_receive_data>
    1dfc:	8f e7       	ldi	r24, 0x7F	; 127
    1dfe:	98 e3       	ldi	r25, 0x38	; 56
    1e00:	21 e0       	ldi	r18, 0x01	; 1
    1e02:	81 50       	subi	r24, 0x01	; 1
    1e04:	90 40       	sbci	r25, 0x00	; 0
    1e06:	20 40       	sbci	r18, 0x00	; 0
    1e08:	e1 f7       	brne	.-8      	; 0x1e02 <main+0x146c>
    1e0a:	00 c0       	rjmp	.+0      	; 0x1e0c <main+0x1476>
    1e0c:	00 00       	nop
												_delay_ms(50);
												temperature=SPI_master_transmit_and_receive_data(DUMMY_DATA);
    1e0e:	8f ef       	ldi	r24, 0xFF	; 255
    1e10:	0e 94 e5 12 	call	0x25ca	; 0x25ca <SPI_master_transmit_and_receive_data>
    1e14:	80 93 30 03 	sts	0x0330, r24	; 0x800330 <temperature>
    1e18:	8f e7       	ldi	r24, 0x7F	; 127
    1e1a:	98 e3       	ldi	r25, 0x38	; 56
    1e1c:	21 e0       	ldi	r18, 0x01	; 1
    1e1e:	81 50       	subi	r24, 0x01	; 1
    1e20:	90 40       	sbci	r25, 0x00	; 0
    1e22:	20 40       	sbci	r18, 0x00	; 0
    1e24:	e1 f7       	brne	.-8      	; 0x1e1e <main+0x1488>
    1e26:	00 c0       	rjmp	.+0      	; 0x1e28 <main+0x1492>
    1e28:	00 00       	nop
												_delay_ms(50);
												if (temperature<10)
    1e2a:	80 91 30 03 	lds	r24, 0x0330	; 0x800330 <temperature>
    1e2e:	8a 30       	cpi	r24, 0x0A	; 10
    1e30:	98 f4       	brcc	.+38     	; 0x1e58 <main+0x14c2>
												{
													LCD_move_cursor(3,7);
    1e32:	67 e0       	ldi	r22, 0x07	; 7
    1e34:	83 e0       	ldi	r24, 0x03	; 3
    1e36:	0e 94 4a 04 	call	0x894	; 0x894 <LCD_move_cursor>
													LCD_send_data(' ');
    1e3a:	80 e2       	ldi	r24, 0x20	; 32
    1e3c:	0e 94 1c 04 	call	0x838	; 0x838 <LCD_send_data>
													LCD_send_data(temperature+ASCII_ZERO);
    1e40:	80 91 30 03 	lds	r24, 0x0330	; 0x800330 <temperature>
    1e44:	80 5d       	subi	r24, 0xD0	; 208
    1e46:	0e 94 1c 04 	call	0x838	; 0x838 <LCD_send_data>
													LCD_send_data(0xDF);
    1e4a:	8f ed       	ldi	r24, 0xDF	; 223
    1e4c:	0e 94 1c 04 	call	0x838	; 0x838 <LCD_send_data>
													LCD_send_data('C');
    1e50:	83 e4       	ldi	r24, 0x43	; 67
    1e52:	0e 94 1c 04 	call	0x838	; 0x838 <LCD_send_data>
    1e56:	29 c0       	rjmp	.+82     	; 0x1eaa <main+0x1514>
												}
												else if(temperature<100)
    1e58:	84 36       	cpi	r24, 0x64	; 100
    1e5a:	38 f5       	brcc	.+78     	; 0x1eaa <main+0x1514>
												{
													LCD_move_cursor(3,7);
    1e5c:	67 e0       	ldi	r22, 0x07	; 7
    1e5e:	83 e0       	ldi	r24, 0x03	; 3
    1e60:	0e 94 4a 04 	call	0x894	; 0x894 <LCD_move_cursor>
													LCD_send_data(temperature/10+ASCII_ZERO);
    1e64:	80 91 30 03 	lds	r24, 0x0330	; 0x800330 <temperature>
    1e68:	1d ec       	ldi	r17, 0xCD	; 205
    1e6a:	81 9f       	mul	r24, r17
    1e6c:	81 2d       	mov	r24, r1
    1e6e:	11 24       	eor	r1, r1
    1e70:	86 95       	lsr	r24
    1e72:	86 95       	lsr	r24
    1e74:	86 95       	lsr	r24
    1e76:	80 5d       	subi	r24, 0xD0	; 208
    1e78:	0e 94 1c 04 	call	0x838	; 0x838 <LCD_send_data>
													LCD_send_data(temperature%10+ASCII_ZERO);
    1e7c:	80 91 30 03 	lds	r24, 0x0330	; 0x800330 <temperature>
    1e80:	81 9f       	mul	r24, r17
    1e82:	11 2d       	mov	r17, r1
    1e84:	11 24       	eor	r1, r1
    1e86:	16 95       	lsr	r17
    1e88:	16 95       	lsr	r17
    1e8a:	16 95       	lsr	r17
    1e8c:	11 0f       	add	r17, r17
    1e8e:	91 2f       	mov	r25, r17
    1e90:	99 0f       	add	r25, r25
    1e92:	99 0f       	add	r25, r25
    1e94:	19 0f       	add	r17, r25
    1e96:	81 1b       	sub	r24, r17
    1e98:	80 5d       	subi	r24, 0xD0	; 208
    1e9a:	0e 94 1c 04 	call	0x838	; 0x838 <LCD_send_data>
													LCD_send_data(0xDF);
    1e9e:	8f ed       	ldi	r24, 0xDF	; 223
    1ea0:	0e 94 1c 04 	call	0x838	; 0x838 <LCD_send_data>
													LCD_send_data('C');
    1ea4:	83 e4       	ldi	r24, 0x43	; 67
    1ea6:	0e 94 1c 04 	call	0x838	; 0x838 <LCD_send_data>
												}
												key_value=KEYBAD_check_press();
    1eaa:	0e 94 24 03 	call	0x648	; 0x648 <KEYBAD_check_press>
											} while (NOT_pressed==key_value);
    1eae:	8f 3f       	cpi	r24, 0xFF	; 255
    1eb0:	09 f4       	brne	.+2      	; 0x1eb4 <main+0x151e>
    1eb2:	a1 cf       	rjmp	.-190    	; 0x1df6 <main+0x1460>
											if (RET_STATUS==key_value)
    1eb4:	80 33       	cpi	r24, 0x30	; 48
    1eb6:	09 f4       	brne	.+2      	; 0x1eba <main+0x1524>
    1eb8:	68 c0       	rjmp	.+208    	; 0x1f8a <main+0x15f4>
									else if (TEMP_MENU==menu)
									{
										LCD_clr_screen();
										LCD_move_cursor(2,1);
										LCD_send_string("    Temperature");
										while(time_out<TIME_MAX)
    1eba:	80 91 31 03 	lds	r24, 0x0331	; 0x800331 <time_out>
    1ebe:	90 91 32 03 	lds	r25, 0x0332	; 0x800332 <time_out+0x1>
    1ec2:	a0 91 33 03 	lds	r26, 0x0333	; 0x800333 <time_out+0x2>
    1ec6:	b0 91 34 03 	lds	r27, 0x0334	; 0x800334 <time_out+0x3>
    1eca:	88 35       	cpi	r24, 0x58	; 88
    1ecc:	92 40       	sbci	r25, 0x02	; 2
    1ece:	a1 05       	cpc	r26, r1
    1ed0:	b1 05       	cpc	r27, r1
    1ed2:	08 f4       	brcc	.+2      	; 0x1ed6 <main+0x1540>
    1ed4:	90 cf       	rjmp	.-224    	; 0x1df6 <main+0x1460>
    1ed6:	59 c0       	rjmp	.+178    	; 0x1f8a <main+0x15f4>
											{
												break;
											}
										}	
									}
									else if (CHANGE_PASS==menu)
    1ed8:	88 33       	cpi	r24, 0x38	; 56
    1eda:	09 f0       	breq	.+2      	; 0x1ede <main+0x1548>
    1edc:	54 c0       	rjmp	.+168    	; 0x1f86 <main+0x15f0>
									{
										LCD_clr_screen();
    1ede:	0e 94 40 04 	call	0x880	; 0x880 <LCD_clr_screen>
										LCD_send_string(" set Admin password");
    1ee2:	83 ec       	ldi	r24, 0xC3	; 195
    1ee4:	90 e0       	ldi	r25, 0x00	; 0
    1ee6:	0e 94 33 04 	call	0x866	; 0x866 <LCD_send_string>
										LCD_move_cursor(3,1);
    1eea:	61 e0       	ldi	r22, 0x01	; 1
    1eec:	83 e0       	ldi	r24, 0x03	; 3
    1eee:	0e 94 4a 04 	call	0x894	; 0x894 <LCD_move_cursor>
										LCD_send_string("password:");
    1ef2:	87 ed       	ldi	r24, 0xD7	; 215
    1ef4:	90 e0       	ldi	r25, 0x00	; 0
    1ef6:	0e 94 33 04 	call	0x866	; 0x866 <LCD_send_string>
										for (counter=0;counter<PASS_SIZE;counter++)
    1efa:	10 e0       	ldi	r17, 0x00	; 0
    1efc:	20 c0       	rjmp	.+64     	; 0x1f3e <main+0x15a8>
										{
											key_value=KEYBAD_user();
    1efe:	0e 94 82 04 	call	0x904	; 0x904 <KEYBAD_user>
    1f02:	08 2f       	mov	r16, r24
											LCD_send_data(key_value);
    1f04:	0e 94 1c 04 	call	0x838	; 0x838 <LCD_send_data>
    1f08:	8f ef       	ldi	r24, 0xFF	; 255
    1f0a:	94 e3       	ldi	r25, 0x34	; 52
    1f0c:	2c e0       	ldi	r18, 0x0C	; 12
    1f0e:	81 50       	subi	r24, 0x01	; 1
    1f10:	90 40       	sbci	r25, 0x00	; 0
    1f12:	20 40       	sbci	r18, 0x00	; 0
    1f14:	e1 f7       	brne	.-8      	; 0x1f0e <main+0x1578>
    1f16:	00 c0       	rjmp	.+0      	; 0x1f18 <main+0x1582>
    1f18:	00 00       	nop
											_delay_ms(500);
											LCD_move_cursor(3,10+counter);
    1f1a:	6a e0       	ldi	r22, 0x0A	; 10
    1f1c:	61 0f       	add	r22, r17
    1f1e:	83 e0       	ldi	r24, 0x03	; 3
    1f20:	0e 94 4a 04 	call	0x894	; 0x894 <LCD_move_cursor>
											LCD_send_data(PASSWORD_SYMBOL);
    1f24:	8a e2       	ldi	r24, 0x2A	; 42
    1f26:	0e 94 1c 04 	call	0x838	; 0x838 <LCD_send_data>
											EEPROM_write(EEPROM_ADMIN_ADDRESS+counter,key_value);
    1f2a:	81 2f       	mov	r24, r17
    1f2c:	01 2e       	mov	r0, r17
    1f2e:	00 0c       	add	r0, r0
    1f30:	99 0b       	sbc	r25, r25
    1f32:	60 2f       	mov	r22, r16
    1f34:	8e 5f       	subi	r24, 0xFE	; 254
    1f36:	9e 4f       	sbci	r25, 0xFE	; 254
    1f38:	0e 94 d4 02 	call	0x5a8	; 0x5a8 <EEPROM_write>
									{
										LCD_clr_screen();
										LCD_send_string(" set Admin password");
										LCD_move_cursor(3,1);
										LCD_send_string("password:");
										for (counter=0;counter<PASS_SIZE;counter++)
    1f3c:	1f 5f       	subi	r17, 0xFF	; 255
    1f3e:	14 30       	cpi	r17, 0x04	; 4
    1f40:	f4 f2       	brlt	.-68     	; 0x1efe <main+0x1568>
    1f42:	8f ef       	ldi	r24, 0xFF	; 255
    1f44:	94 e3       	ldi	r25, 0x34	; 52
    1f46:	2c e0       	ldi	r18, 0x0C	; 12
    1f48:	81 50       	subi	r24, 0x01	; 1
    1f4a:	90 40       	sbci	r25, 0x00	; 0
    1f4c:	20 40       	sbci	r18, 0x00	; 0
    1f4e:	e1 f7       	brne	.-8      	; 0x1f48 <main+0x15b2>
    1f50:	00 c0       	rjmp	.+0      	; 0x1f52 <main+0x15bc>
    1f52:	00 00       	nop
											LCD_send_data(PASSWORD_SYMBOL);
											EEPROM_write(EEPROM_ADMIN_ADDRESS+counter,key_value);
											
										}
										_delay_ms(500);
										LCD_clr_screen();
    1f54:	0e 94 40 04 	call	0x880	; 0x880 <LCD_clr_screen>
										LCD_move_cursor(2,1);
    1f58:	61 e0       	ldi	r22, 0x01	; 1
    1f5a:	82 e0       	ldi	r24, 0x02	; 2
    1f5c:	0e 94 4a 04 	call	0x894	; 0x894 <LCD_move_cursor>
										LCD_send_string("   password save");
    1f60:	81 ee       	ldi	r24, 0xE1	; 225
    1f62:	90 e0       	ldi	r25, 0x00	; 0
    1f64:	0e 94 33 04 	call	0x866	; 0x866 <LCD_send_string>
    1f68:	8f ef       	ldi	r24, 0xFF	; 255
    1f6a:	94 e3       	ldi	r25, 0x34	; 52
    1f6c:	2c e0       	ldi	r18, 0x0C	; 12
    1f6e:	81 50       	subi	r24, 0x01	; 1
    1f70:	90 40       	sbci	r25, 0x00	; 0
    1f72:	20 40       	sbci	r18, 0x00	; 0
    1f74:	e1 f7       	brne	.-8      	; 0x1f6e <main+0x15d8>
    1f76:	00 c0       	rjmp	.+0      	; 0x1f78 <main+0x15e2>
    1f78:	00 00       	nop
										_delay_ms(500);
										EEPROM_write(ADMIN_PASS_STATUS_ADDRESS,PASS_SET);
    1f7a:	61 e0       	ldi	r22, 0x01	; 1
    1f7c:	81 e0       	ldi	r24, 0x01	; 1
    1f7e:	91 e0       	ldi	r25, 0x01	; 1
    1f80:	0e 94 d4 02 	call	0x5a8	; 0x5a8 <EEPROM_write>
    1f84:	02 c0       	rjmp	.+4      	; 0x1f8a <main+0x15f4>
									}
									else if (RET_STATUS==menu)
    1f86:	80 33       	cpi	r24, 0x30	; 48
    1f88:	89 f0       	breq	.+34     	; 0x1fac <main+0x1616>
									}
								}
							}
							else if (MORE_MENU==menu)
							{
								while(time_out<TIME_MAX)
    1f8a:	80 91 31 03 	lds	r24, 0x0331	; 0x800331 <time_out>
    1f8e:	90 91 32 03 	lds	r25, 0x0332	; 0x800332 <time_out+0x1>
    1f92:	a0 91 33 03 	lds	r26, 0x0333	; 0x800333 <time_out+0x2>
    1f96:	b0 91 34 03 	lds	r27, 0x0334	; 0x800334 <time_out+0x3>
    1f9a:	88 35       	cpi	r24, 0x58	; 88
    1f9c:	92 40       	sbci	r25, 0x02	; 2
    1f9e:	a1 05       	cpc	r26, r1
    1fa0:	b1 05       	cpc	r27, r1
    1fa2:	08 f4       	brcc	.+2      	; 0x1fa6 <main+0x1610>
    1fa4:	50 cd       	rjmp	.-1376   	; 0x1a46 <main+0x10b0>
    1fa6:	02 c0       	rjmp	.+4      	; 0x1fac <main+0x1616>
									{
										break;
									}
								}
							}
							else if (RET_STATUS==menu)
    1fa8:	80 33       	cpi	r24, 0x30	; 48
    1faa:	79 f0       	breq	.+30     	; 0x1fca <main+0x1634>
						LCD_clr_screen();
						LCD_move_cursor(2,1);
						LCD_send_string("   Right password");
						_delay_ms(500);
						LED_turn_on(ADMIN_PORT,ADMIN_PIN);
						while(time_out<TIME_MAX)
    1fac:	80 91 31 03 	lds	r24, 0x0331	; 0x800331 <time_out>
    1fb0:	90 91 32 03 	lds	r25, 0x0332	; 0x800332 <time_out+0x1>
    1fb4:	a0 91 33 03 	lds	r26, 0x0333	; 0x800333 <time_out+0x2>
    1fb8:	b0 91 34 03 	lds	r27, 0x0334	; 0x800334 <time_out+0x3>
    1fbc:	88 35       	cpi	r24, 0x58	; 88
    1fbe:	92 40       	sbci	r25, 0x02	; 2
    1fc0:	a1 05       	cpc	r26, r1
    1fc2:	b1 05       	cpc	r27, r1
    1fc4:	10 f4       	brcc	.+4      	; 0x1fca <main+0x1634>
    1fc6:	0c 94 51 07 	jmp	0xea2	; 0xea2 <main+0x50c>
							else if (RET_STATUS==menu)
							{
								break;
							}
						}
						LED_turn_off(ADMIN_PORT,ADMIN_PIN);
    1fca:	60 e0       	ldi	r22, 0x00	; 0
    1fcc:	82 e4       	ldi	r24, 0x42	; 66
    1fce:	0e 94 7e 04 	call	0x8fc	; 0x8fc <LED_turn_off>
						break;
    1fd2:	0c 94 2b 06 	jmp	0xc56	; 0xc56 <main+0x2c0>
		mode=key_value;
		switch(mode)
		{
			case ADMIN :
			{
				while(tries>0)
    1fd6:	11 23       	and	r17, r17
    1fd8:	11 f4       	brne	.+4      	; 0x1fde <main+0x1648>
    1fda:	0c 94 2b 06 	jmp	0xc56	; 0xc56 <main+0x2c0>
    1fde:	0c 94 a8 06 	jmp	0xd50	; 0xd50 <main+0x3ba>
				}
				break;
			}
			case GUEST :
			{
				LED_turn_on(GUEST_PORT,GUEST_PIN);
    1fe2:	61 e0       	ldi	r22, 0x01	; 1
    1fe4:	82 e4       	ldi	r24, 0x42	; 66
    1fe6:	0e 94 7a 04 	call	0x8f4	; 0x8f4 <LED_turn_on>
				while(time_out<TIME_MAX)
    1fea:	9d c2       	rjmp	.+1338   	; 0x2526 <main+0x1b90>
				{
					LCD_clr_screen();
    1fec:	0e 94 40 04 	call	0x880	; 0x880 <LCD_clr_screen>
					LCD_send_string("Control List:");
    1ff0:	88 e9       	ldi	r24, 0x98	; 152
    1ff2:	91 e0       	ldi	r25, 0x01	; 1
    1ff4:	0e 94 33 04 	call	0x866	; 0x866 <LCD_send_string>
					LCD_move_cursor(2,1);
    1ff8:	61 e0       	ldi	r22, 0x01	; 1
    1ffa:	82 e0       	ldi	r24, 0x02	; 2
    1ffc:	0e 94 4a 04 	call	0x894	; 0x894 <LCD_move_cursor>
					LCD_send_string(" 1-Room1  2-Room2");
    2000:	84 e0       	ldi	r24, 0x04	; 4
    2002:	93 e0       	ldi	r25, 0x03	; 3
    2004:	0e 94 33 04 	call	0x866	; 0x866 <LCD_send_string>
					LCD_move_cursor(3,1);
    2008:	61 e0       	ldi	r22, 0x01	; 1
    200a:	83 e0       	ldi	r24, 0x03	; 3
    200c:	0e 94 4a 04 	call	0x894	; 0x894 <LCD_move_cursor>
					LCD_send_string(" 3-Room3  4-Room4");
    2010:	86 e1       	ldi	r24, 0x16	; 22
    2012:	93 e0       	ldi	r25, 0x03	; 3
    2014:	0e 94 33 04 	call	0x866	; 0x866 <LCD_send_string>
					LCD_move_cursor(4,1);
    2018:	61 e0       	ldi	r22, 0x01	; 1
    201a:	84 e0       	ldi	r24, 0x04	; 4
    201c:	0e 94 4a 04 	call	0x894	; 0x894 <LCD_move_cursor>
					LCD_send_string(" 0-back");
    2020:	85 e9       	ldi	r24, 0x95	; 149
    2022:	92 e0       	ldi	r25, 0x02	; 2
    2024:	0e 94 33 04 	call	0x866	; 0x866 <LCD_send_string>
					menu=KEYBAD_user();
    2028:	0e 94 82 04 	call	0x904	; 0x904 <KEYBAD_user>
					if (ROOM1_MENU==menu)
    202c:	81 33       	cpi	r24, 0x31	; 49
    202e:	09 f0       	breq	.+2      	; 0x2032 <main+0x169c>
    2030:	a3 c0       	rjmp	.+326    	; 0x2178 <main+0x17e2>
					{
						LCD_clr_screen();
    2032:	0e 94 40 04 	call	0x880	; 0x880 <LCD_clr_screen>
						LCD_send_string("      Room one");
    2036:	8e ed       	ldi	r24, 0xDE	; 222
    2038:	91 e0       	ldi	r25, 0x01	; 1
    203a:	0e 94 33 04 	call	0x866	; 0x866 <LCD_send_string>
						LCD_move_cursor(2,1);
    203e:	61 e0       	ldi	r22, 0x01	; 1
    2040:	82 e0       	ldi	r24, 0x02	; 2
    2042:	0e 94 4a 04 	call	0x894	; 0x894 <LCD_move_cursor>
						LCD_send_string("LED:");
    2046:	88 e2       	ldi	r24, 0x28	; 40
    2048:	93 e0       	ldi	r25, 0x03	; 3
    204a:	0e 94 33 04 	call	0x866	; 0x866 <LCD_send_string>
						LCD_move_cursor(3,1);
    204e:	61 e0       	ldi	r22, 0x01	; 1
    2050:	83 e0       	ldi	r24, 0x03	; 3
    2052:	0e 94 4a 04 	call	0x894	; 0x894 <LCD_move_cursor>
						LCD_send_string("0-back 1-on 2-off");
    2056:	87 e0       	ldi	r24, 0x07	; 7
    2058:	92 e0       	ldi	r25, 0x02	; 2
    205a:	0e 94 33 04 	call	0x866	; 0x866 <LCD_send_string>
						while(time_out<TIME_MAX)
    205e:	7d c0       	rjmp	.+250    	; 0x215a <main+0x17c4>
						{
							if (led_R1==ON)
    2060:	80 91 38 03 	lds	r24, 0x0338	; 0x800338 <led_R1>
    2064:	81 30       	cpi	r24, 0x01	; 1
    2066:	89 f4       	brne	.+34     	; 0x208a <main+0x16f4>
							{
								LCD_move_cursor(2,5);
    2068:	65 e0       	ldi	r22, 0x05	; 5
    206a:	82 e0       	ldi	r24, 0x02	; 2
    206c:	0e 94 4a 04 	call	0x894	; 0x894 <LCD_move_cursor>
								LCD_send_string("   ");
    2070:	8d ec       	ldi	r24, 0xCD	; 205
    2072:	92 e0       	ldi	r25, 0x02	; 2
    2074:	0e 94 33 04 	call	0x866	; 0x866 <LCD_send_string>
								LCD_move_cursor(2,5);
    2078:	65 e0       	ldi	r22, 0x05	; 5
    207a:	82 e0       	ldi	r24, 0x02	; 2
    207c:	0e 94 4a 04 	call	0x894	; 0x894 <LCD_move_cursor>
								LCD_send_string("on");
    2080:	81 ef       	ldi	r24, 0xF1	; 241
    2082:	92 e0       	ldi	r25, 0x02	; 2
    2084:	0e 94 33 04 	call	0x866	; 0x866 <LCD_send_string>
    2088:	10 c0       	rjmp	.+32     	; 0x20aa <main+0x1714>
							}
							else
							{
								LCD_move_cursor(2,5);
    208a:	65 e0       	ldi	r22, 0x05	; 5
    208c:	82 e0       	ldi	r24, 0x02	; 2
    208e:	0e 94 4a 04 	call	0x894	; 0x894 <LCD_move_cursor>
								LCD_send_string("   ");
    2092:	8d ec       	ldi	r24, 0xCD	; 205
    2094:	92 e0       	ldi	r25, 0x02	; 2
    2096:	0e 94 33 04 	call	0x866	; 0x866 <LCD_send_string>
								LCD_move_cursor(2,5);
    209a:	65 e0       	ldi	r22, 0x05	; 5
    209c:	82 e0       	ldi	r24, 0x02	; 2
    209e:	0e 94 4a 04 	call	0x894	; 0x894 <LCD_move_cursor>
								LCD_send_string("off");
    20a2:	85 e1       	ldi	r24, 0x15	; 21
    20a4:	92 e0       	ldi	r25, 0x02	; 2
    20a6:	0e 94 33 04 	call	0x866	; 0x866 <LCD_send_string>
							}
							led_status=KEYBAD_user();
    20aa:	0e 94 82 04 	call	0x904	; 0x904 <KEYBAD_user>
							if (ON_STATUS==led_status)
    20ae:	81 33       	cpi	r24, 0x31	; 49
    20b0:	41 f5       	brne	.+80     	; 0x2102 <main+0x176c>
							{
								led_R1=ON;
    20b2:	81 e0       	ldi	r24, 0x01	; 1
    20b4:	80 93 38 03 	sts	0x0338, r24	; 0x800338 <led_R1>
								SPI_master_transmit_and_receive_data(ROOM1_MENU);
    20b8:	81 e3       	ldi	r24, 0x31	; 49
    20ba:	0e 94 e5 12 	call	0x25ca	; 0x25ca <SPI_master_transmit_and_receive_data>
    20be:	8f e7       	ldi	r24, 0x7F	; 127
    20c0:	98 e3       	ldi	r25, 0x38	; 56
    20c2:	21 e0       	ldi	r18, 0x01	; 1
    20c4:	81 50       	subi	r24, 0x01	; 1
    20c6:	90 40       	sbci	r25, 0x00	; 0
    20c8:	20 40       	sbci	r18, 0x00	; 0
    20ca:	e1 f7       	brne	.-8      	; 0x20c4 <main+0x172e>
    20cc:	00 c0       	rjmp	.+0      	; 0x20ce <main+0x1738>
    20ce:	00 00       	nop
								_delay_ms(50);
								SPI_master_transmit_and_receive_data(LED);
    20d0:	81 e3       	ldi	r24, 0x31	; 49
    20d2:	0e 94 e5 12 	call	0x25ca	; 0x25ca <SPI_master_transmit_and_receive_data>
    20d6:	8f e7       	ldi	r24, 0x7F	; 127
    20d8:	98 e3       	ldi	r25, 0x38	; 56
    20da:	21 e0       	ldi	r18, 0x01	; 1
    20dc:	81 50       	subi	r24, 0x01	; 1
    20de:	90 40       	sbci	r25, 0x00	; 0
    20e0:	20 40       	sbci	r18, 0x00	; 0
    20e2:	e1 f7       	brne	.-8      	; 0x20dc <main+0x1746>
    20e4:	00 c0       	rjmp	.+0      	; 0x20e6 <main+0x1750>
    20e6:	00 00       	nop
								_delay_ms(50);
								SPI_master_transmit_and_receive_data(ON_STATUS);
    20e8:	81 e3       	ldi	r24, 0x31	; 49
    20ea:	0e 94 e5 12 	call	0x25ca	; 0x25ca <SPI_master_transmit_and_receive_data>
    20ee:	8f e7       	ldi	r24, 0x7F	; 127
    20f0:	98 e3       	ldi	r25, 0x38	; 56
    20f2:	21 e0       	ldi	r18, 0x01	; 1
    20f4:	81 50       	subi	r24, 0x01	; 1
    20f6:	90 40       	sbci	r25, 0x00	; 0
    20f8:	20 40       	sbci	r18, 0x00	; 0
    20fa:	e1 f7       	brne	.-8      	; 0x20f4 <main+0x175e>
    20fc:	00 c0       	rjmp	.+0      	; 0x20fe <main+0x1768>
    20fe:	00 00       	nop
    2100:	2c c0       	rjmp	.+88     	; 0x215a <main+0x17c4>
								_delay_ms(50);
							}
							else if (OFF_STATUS==led_status)
    2102:	82 33       	cpi	r24, 0x32	; 50
    2104:	39 f5       	brne	.+78     	; 0x2154 <main+0x17be>
							{
								led_R1=OFF;
    2106:	10 92 38 03 	sts	0x0338, r1	; 0x800338 <led_R1>
								SPI_master_transmit_and_receive_data(ROOM1_MENU);
    210a:	81 e3       	ldi	r24, 0x31	; 49
    210c:	0e 94 e5 12 	call	0x25ca	; 0x25ca <SPI_master_transmit_and_receive_data>
    2110:	8f e7       	ldi	r24, 0x7F	; 127
    2112:	98 e3       	ldi	r25, 0x38	; 56
    2114:	21 e0       	ldi	r18, 0x01	; 1
    2116:	81 50       	subi	r24, 0x01	; 1
    2118:	90 40       	sbci	r25, 0x00	; 0
    211a:	20 40       	sbci	r18, 0x00	; 0
    211c:	e1 f7       	brne	.-8      	; 0x2116 <main+0x1780>
    211e:	00 c0       	rjmp	.+0      	; 0x2120 <main+0x178a>
    2120:	00 00       	nop
								_delay_ms(50);
								SPI_master_transmit_and_receive_data(LED);
    2122:	81 e3       	ldi	r24, 0x31	; 49
    2124:	0e 94 e5 12 	call	0x25ca	; 0x25ca <SPI_master_transmit_and_receive_data>
    2128:	8f e7       	ldi	r24, 0x7F	; 127
    212a:	98 e3       	ldi	r25, 0x38	; 56
    212c:	21 e0       	ldi	r18, 0x01	; 1
    212e:	81 50       	subi	r24, 0x01	; 1
    2130:	90 40       	sbci	r25, 0x00	; 0
    2132:	20 40       	sbci	r18, 0x00	; 0
    2134:	e1 f7       	brne	.-8      	; 0x212e <main+0x1798>
    2136:	00 c0       	rjmp	.+0      	; 0x2138 <main+0x17a2>
    2138:	00 00       	nop
								_delay_ms(50);
								SPI_master_transmit_and_receive_data(OFF_STATUS);
    213a:	82 e3       	ldi	r24, 0x32	; 50
    213c:	0e 94 e5 12 	call	0x25ca	; 0x25ca <SPI_master_transmit_and_receive_data>
    2140:	8f e7       	ldi	r24, 0x7F	; 127
    2142:	98 e3       	ldi	r25, 0x38	; 56
    2144:	21 e0       	ldi	r18, 0x01	; 1
    2146:	81 50       	subi	r24, 0x01	; 1
    2148:	90 40       	sbci	r25, 0x00	; 0
    214a:	20 40       	sbci	r18, 0x00	; 0
    214c:	e1 f7       	brne	.-8      	; 0x2146 <main+0x17b0>
    214e:	00 c0       	rjmp	.+0      	; 0x2150 <main+0x17ba>
    2150:	00 00       	nop
    2152:	03 c0       	rjmp	.+6      	; 0x215a <main+0x17c4>
								_delay_ms(50);
							}
							else if (RET_STATUS==led_status)
    2154:	80 33       	cpi	r24, 0x30	; 48
    2156:	09 f4       	brne	.+2      	; 0x215a <main+0x17c4>
    2158:	e6 c1       	rjmp	.+972    	; 0x2526 <main+0x1b90>
						LCD_send_string("      Room one");
						LCD_move_cursor(2,1);
						LCD_send_string("LED:");
						LCD_move_cursor(3,1);
						LCD_send_string("0-back 1-on 2-off");
						while(time_out<TIME_MAX)
    215a:	80 91 31 03 	lds	r24, 0x0331	; 0x800331 <time_out>
    215e:	90 91 32 03 	lds	r25, 0x0332	; 0x800332 <time_out+0x1>
    2162:	a0 91 33 03 	lds	r26, 0x0333	; 0x800333 <time_out+0x2>
    2166:	b0 91 34 03 	lds	r27, 0x0334	; 0x800334 <time_out+0x3>
    216a:	88 35       	cpi	r24, 0x58	; 88
    216c:	92 40       	sbci	r25, 0x02	; 2
    216e:	a1 05       	cpc	r26, r1
    2170:	b1 05       	cpc	r27, r1
    2172:	08 f4       	brcc	.+2      	; 0x2176 <main+0x17e0>
    2174:	75 cf       	rjmp	.-278    	; 0x2060 <main+0x16ca>
    2176:	d7 c1       	rjmp	.+942    	; 0x2526 <main+0x1b90>
							{
								break;
							}
						}
					}
					else if (ROOM2_MENU==menu)
    2178:	82 33       	cpi	r24, 0x32	; 50
    217a:	09 f0       	breq	.+2      	; 0x217e <main+0x17e8>
    217c:	a2 c0       	rjmp	.+324    	; 0x22c2 <main+0x192c>
					{
						LCD_clr_screen();
    217e:	0e 94 40 04 	call	0x880	; 0x880 <LCD_clr_screen>
						LCD_send_string("      Room two");
    2182:	8e e1       	ldi	r24, 0x1E	; 30
    2184:	92 e0       	ldi	r25, 0x02	; 2
    2186:	0e 94 33 04 	call	0x866	; 0x866 <LCD_send_string>
						LCD_move_cursor(2,1);
    218a:	61 e0       	ldi	r22, 0x01	; 1
    218c:	82 e0       	ldi	r24, 0x02	; 2
    218e:	0e 94 4a 04 	call	0x894	; 0x894 <LCD_move_cursor>
						LCD_send_string("LED:");
    2192:	88 e2       	ldi	r24, 0x28	; 40
    2194:	93 e0       	ldi	r25, 0x03	; 3
    2196:	0e 94 33 04 	call	0x866	; 0x866 <LCD_send_string>
						LCD_move_cursor(3,1);
    219a:	61 e0       	ldi	r22, 0x01	; 1
    219c:	83 e0       	ldi	r24, 0x03	; 3
    219e:	0e 94 4a 04 	call	0x894	; 0x894 <LCD_move_cursor>
						LCD_send_string("0-back 1-on 2-off");
    21a2:	87 e0       	ldi	r24, 0x07	; 7
    21a4:	92 e0       	ldi	r25, 0x02	; 2
    21a6:	0e 94 33 04 	call	0x866	; 0x866 <LCD_send_string>
						while(time_out<TIME_MAX)
    21aa:	7c c0       	rjmp	.+248    	; 0x22a4 <main+0x190e>
						{
							if (led_R2==ON)
    21ac:	80 91 3d 03 	lds	r24, 0x033D	; 0x80033d <led_R2>
    21b0:	81 30       	cpi	r24, 0x01	; 1
    21b2:	89 f4       	brne	.+34     	; 0x21d6 <main+0x1840>
							{
								LCD_move_cursor(2,5);
    21b4:	65 e0       	ldi	r22, 0x05	; 5
    21b6:	82 e0       	ldi	r24, 0x02	; 2
    21b8:	0e 94 4a 04 	call	0x894	; 0x894 <LCD_move_cursor>
								LCD_send_string("   ");
    21bc:	8d ec       	ldi	r24, 0xCD	; 205
    21be:	92 e0       	ldi	r25, 0x02	; 2
    21c0:	0e 94 33 04 	call	0x866	; 0x866 <LCD_send_string>
								LCD_move_cursor(2,5);
    21c4:	65 e0       	ldi	r22, 0x05	; 5
    21c6:	82 e0       	ldi	r24, 0x02	; 2
    21c8:	0e 94 4a 04 	call	0x894	; 0x894 <LCD_move_cursor>
								LCD_send_string("on");
    21cc:	81 ef       	ldi	r24, 0xF1	; 241
    21ce:	92 e0       	ldi	r25, 0x02	; 2
    21d0:	0e 94 33 04 	call	0x866	; 0x866 <LCD_send_string>
    21d4:	10 c0       	rjmp	.+32     	; 0x21f6 <main+0x1860>
							}
							else
							{
								LCD_move_cursor(2,5);
    21d6:	65 e0       	ldi	r22, 0x05	; 5
    21d8:	82 e0       	ldi	r24, 0x02	; 2
    21da:	0e 94 4a 04 	call	0x894	; 0x894 <LCD_move_cursor>
								LCD_send_string("   ");
    21de:	8d ec       	ldi	r24, 0xCD	; 205
    21e0:	92 e0       	ldi	r25, 0x02	; 2
    21e2:	0e 94 33 04 	call	0x866	; 0x866 <LCD_send_string>
								LCD_move_cursor(2,5);
    21e6:	65 e0       	ldi	r22, 0x05	; 5
    21e8:	82 e0       	ldi	r24, 0x02	; 2
    21ea:	0e 94 4a 04 	call	0x894	; 0x894 <LCD_move_cursor>
								LCD_send_string("off");
    21ee:	85 e1       	ldi	r24, 0x15	; 21
    21f0:	92 e0       	ldi	r25, 0x02	; 2
    21f2:	0e 94 33 04 	call	0x866	; 0x866 <LCD_send_string>
							}
							led_status=KEYBAD_user();
    21f6:	0e 94 82 04 	call	0x904	; 0x904 <KEYBAD_user>
							if (ON_STATUS==led_status)
    21fa:	81 33       	cpi	r24, 0x31	; 49
    21fc:	41 f5       	brne	.+80     	; 0x224e <main+0x18b8>
							{
								led_R2=ON;
    21fe:	81 e0       	ldi	r24, 0x01	; 1
    2200:	80 93 3d 03 	sts	0x033D, r24	; 0x80033d <led_R2>
								SPI_master_transmit_and_receive_data(ROOM2_MENU);
    2204:	82 e3       	ldi	r24, 0x32	; 50
    2206:	0e 94 e5 12 	call	0x25ca	; 0x25ca <SPI_master_transmit_and_receive_data>
    220a:	8f e7       	ldi	r24, 0x7F	; 127
    220c:	98 e3       	ldi	r25, 0x38	; 56
    220e:	21 e0       	ldi	r18, 0x01	; 1
    2210:	81 50       	subi	r24, 0x01	; 1
    2212:	90 40       	sbci	r25, 0x00	; 0
    2214:	20 40       	sbci	r18, 0x00	; 0
    2216:	e1 f7       	brne	.-8      	; 0x2210 <main+0x187a>
    2218:	00 c0       	rjmp	.+0      	; 0x221a <main+0x1884>
    221a:	00 00       	nop
								_delay_ms(50);
								SPI_master_transmit_and_receive_data(LED);
    221c:	81 e3       	ldi	r24, 0x31	; 49
    221e:	0e 94 e5 12 	call	0x25ca	; 0x25ca <SPI_master_transmit_and_receive_data>
    2222:	8f e7       	ldi	r24, 0x7F	; 127
    2224:	98 e3       	ldi	r25, 0x38	; 56
    2226:	21 e0       	ldi	r18, 0x01	; 1
    2228:	81 50       	subi	r24, 0x01	; 1
    222a:	90 40       	sbci	r25, 0x00	; 0
    222c:	20 40       	sbci	r18, 0x00	; 0
    222e:	e1 f7       	brne	.-8      	; 0x2228 <main+0x1892>
    2230:	00 c0       	rjmp	.+0      	; 0x2232 <main+0x189c>
    2232:	00 00       	nop
								_delay_ms(50);
								SPI_master_transmit_and_receive_data(ON_STATUS);
    2234:	81 e3       	ldi	r24, 0x31	; 49
    2236:	0e 94 e5 12 	call	0x25ca	; 0x25ca <SPI_master_transmit_and_receive_data>
    223a:	8f e7       	ldi	r24, 0x7F	; 127
    223c:	98 e3       	ldi	r25, 0x38	; 56
    223e:	21 e0       	ldi	r18, 0x01	; 1
    2240:	81 50       	subi	r24, 0x01	; 1
    2242:	90 40       	sbci	r25, 0x00	; 0
    2244:	20 40       	sbci	r18, 0x00	; 0
    2246:	e1 f7       	brne	.-8      	; 0x2240 <main+0x18aa>
    2248:	00 c0       	rjmp	.+0      	; 0x224a <main+0x18b4>
    224a:	00 00       	nop
    224c:	2b c0       	rjmp	.+86     	; 0x22a4 <main+0x190e>
								_delay_ms(50);
							}
							else if (OFF_STATUS==led_status)
    224e:	82 33       	cpi	r24, 0x32	; 50
    2250:	31 f5       	brne	.+76     	; 0x229e <main+0x1908>
							{
								led_R2=OFF;
    2252:	10 92 3d 03 	sts	0x033D, r1	; 0x80033d <led_R2>
								SPI_master_transmit_and_receive_data(ROOM2_MENU);
    2256:	0e 94 e5 12 	call	0x25ca	; 0x25ca <SPI_master_transmit_and_receive_data>
    225a:	8f e7       	ldi	r24, 0x7F	; 127
    225c:	98 e3       	ldi	r25, 0x38	; 56
    225e:	21 e0       	ldi	r18, 0x01	; 1
    2260:	81 50       	subi	r24, 0x01	; 1
    2262:	90 40       	sbci	r25, 0x00	; 0
    2264:	20 40       	sbci	r18, 0x00	; 0
    2266:	e1 f7       	brne	.-8      	; 0x2260 <main+0x18ca>
    2268:	00 c0       	rjmp	.+0      	; 0x226a <main+0x18d4>
    226a:	00 00       	nop
								_delay_ms(50);
								SPI_master_transmit_and_receive_data(LED);
    226c:	81 e3       	ldi	r24, 0x31	; 49
    226e:	0e 94 e5 12 	call	0x25ca	; 0x25ca <SPI_master_transmit_and_receive_data>
    2272:	8f e7       	ldi	r24, 0x7F	; 127
    2274:	98 e3       	ldi	r25, 0x38	; 56
    2276:	21 e0       	ldi	r18, 0x01	; 1
    2278:	81 50       	subi	r24, 0x01	; 1
    227a:	90 40       	sbci	r25, 0x00	; 0
    227c:	20 40       	sbci	r18, 0x00	; 0
    227e:	e1 f7       	brne	.-8      	; 0x2278 <main+0x18e2>
    2280:	00 c0       	rjmp	.+0      	; 0x2282 <main+0x18ec>
    2282:	00 00       	nop
								_delay_ms(50);
								SPI_master_transmit_and_receive_data(OFF_STATUS);
    2284:	82 e3       	ldi	r24, 0x32	; 50
    2286:	0e 94 e5 12 	call	0x25ca	; 0x25ca <SPI_master_transmit_and_receive_data>
    228a:	8f e7       	ldi	r24, 0x7F	; 127
    228c:	98 e3       	ldi	r25, 0x38	; 56
    228e:	21 e0       	ldi	r18, 0x01	; 1
    2290:	81 50       	subi	r24, 0x01	; 1
    2292:	90 40       	sbci	r25, 0x00	; 0
    2294:	20 40       	sbci	r18, 0x00	; 0
    2296:	e1 f7       	brne	.-8      	; 0x2290 <main+0x18fa>
    2298:	00 c0       	rjmp	.+0      	; 0x229a <main+0x1904>
    229a:	00 00       	nop
    229c:	03 c0       	rjmp	.+6      	; 0x22a4 <main+0x190e>
								_delay_ms(50);
							}
							else if (RET_STATUS==led_status)
    229e:	80 33       	cpi	r24, 0x30	; 48
    22a0:	09 f4       	brne	.+2      	; 0x22a4 <main+0x190e>
    22a2:	41 c1       	rjmp	.+642    	; 0x2526 <main+0x1b90>
						LCD_send_string("      Room two");
						LCD_move_cursor(2,1);
						LCD_send_string("LED:");
						LCD_move_cursor(3,1);
						LCD_send_string("0-back 1-on 2-off");
						while(time_out<TIME_MAX)
    22a4:	80 91 31 03 	lds	r24, 0x0331	; 0x800331 <time_out>
    22a8:	90 91 32 03 	lds	r25, 0x0332	; 0x800332 <time_out+0x1>
    22ac:	a0 91 33 03 	lds	r26, 0x0333	; 0x800333 <time_out+0x2>
    22b0:	b0 91 34 03 	lds	r27, 0x0334	; 0x800334 <time_out+0x3>
    22b4:	88 35       	cpi	r24, 0x58	; 88
    22b6:	92 40       	sbci	r25, 0x02	; 2
    22b8:	a1 05       	cpc	r26, r1
    22ba:	b1 05       	cpc	r27, r1
    22bc:	08 f4       	brcc	.+2      	; 0x22c0 <main+0x192a>
    22be:	76 cf       	rjmp	.-276    	; 0x21ac <main+0x1816>
    22c0:	32 c1       	rjmp	.+612    	; 0x2526 <main+0x1b90>
							{
								break;
							}
						}
					}
					else if (ROOM3_MENU==menu)
    22c2:	83 33       	cpi	r24, 0x33	; 51
    22c4:	09 f0       	breq	.+2      	; 0x22c8 <main+0x1932>
    22c6:	a3 c0       	rjmp	.+326    	; 0x240e <main+0x1a78>
					{
						LCD_clr_screen();
    22c8:	0e 94 40 04 	call	0x880	; 0x880 <LCD_clr_screen>
						LCD_send_string("      Room three");
    22cc:	8d e2       	ldi	r24, 0x2D	; 45
    22ce:	92 e0       	ldi	r25, 0x02	; 2
    22d0:	0e 94 33 04 	call	0x866	; 0x866 <LCD_send_string>
						LCD_move_cursor(2,1);
    22d4:	61 e0       	ldi	r22, 0x01	; 1
    22d6:	82 e0       	ldi	r24, 0x02	; 2
    22d8:	0e 94 4a 04 	call	0x894	; 0x894 <LCD_move_cursor>
						LCD_send_string("LED:");
    22dc:	88 e2       	ldi	r24, 0x28	; 40
    22de:	93 e0       	ldi	r25, 0x03	; 3
    22e0:	0e 94 33 04 	call	0x866	; 0x866 <LCD_send_string>
						LCD_move_cursor(3,1);
    22e4:	61 e0       	ldi	r22, 0x01	; 1
    22e6:	83 e0       	ldi	r24, 0x03	; 3
    22e8:	0e 94 4a 04 	call	0x894	; 0x894 <LCD_move_cursor>
						LCD_send_string("0-back 1-on 2-off");
    22ec:	87 e0       	ldi	r24, 0x07	; 7
    22ee:	92 e0       	ldi	r25, 0x02	; 2
    22f0:	0e 94 33 04 	call	0x866	; 0x866 <LCD_send_string>
						while(time_out<TIME_MAX)
    22f4:	7d c0       	rjmp	.+250    	; 0x23f0 <main+0x1a5a>
						{
							if (led_R3==ON)
    22f6:	80 91 37 03 	lds	r24, 0x0337	; 0x800337 <led_R3>
    22fa:	81 30       	cpi	r24, 0x01	; 1
    22fc:	89 f4       	brne	.+34     	; 0x2320 <main+0x198a>
							{
								LCD_move_cursor(2,5);
    22fe:	65 e0       	ldi	r22, 0x05	; 5
    2300:	82 e0       	ldi	r24, 0x02	; 2
    2302:	0e 94 4a 04 	call	0x894	; 0x894 <LCD_move_cursor>
								LCD_send_string("   ");
    2306:	8d ec       	ldi	r24, 0xCD	; 205
    2308:	92 e0       	ldi	r25, 0x02	; 2
    230a:	0e 94 33 04 	call	0x866	; 0x866 <LCD_send_string>
								LCD_move_cursor(2,5);
    230e:	65 e0       	ldi	r22, 0x05	; 5
    2310:	82 e0       	ldi	r24, 0x02	; 2
    2312:	0e 94 4a 04 	call	0x894	; 0x894 <LCD_move_cursor>
								LCD_send_string("on");
    2316:	81 ef       	ldi	r24, 0xF1	; 241
    2318:	92 e0       	ldi	r25, 0x02	; 2
    231a:	0e 94 33 04 	call	0x866	; 0x866 <LCD_send_string>
    231e:	10 c0       	rjmp	.+32     	; 0x2340 <main+0x19aa>
							}
							else
							{
								LCD_move_cursor(2,5);
    2320:	65 e0       	ldi	r22, 0x05	; 5
    2322:	82 e0       	ldi	r24, 0x02	; 2
    2324:	0e 94 4a 04 	call	0x894	; 0x894 <LCD_move_cursor>
								LCD_send_string("   ");
    2328:	8d ec       	ldi	r24, 0xCD	; 205
    232a:	92 e0       	ldi	r25, 0x02	; 2
    232c:	0e 94 33 04 	call	0x866	; 0x866 <LCD_send_string>
								LCD_move_cursor(2,5);
    2330:	65 e0       	ldi	r22, 0x05	; 5
    2332:	82 e0       	ldi	r24, 0x02	; 2
    2334:	0e 94 4a 04 	call	0x894	; 0x894 <LCD_move_cursor>
								LCD_send_string("off");
    2338:	85 e1       	ldi	r24, 0x15	; 21
    233a:	92 e0       	ldi	r25, 0x02	; 2
    233c:	0e 94 33 04 	call	0x866	; 0x866 <LCD_send_string>
							}
							led_status=KEYBAD_user();
    2340:	0e 94 82 04 	call	0x904	; 0x904 <KEYBAD_user>
							if (ON_STATUS==led_status)
    2344:	81 33       	cpi	r24, 0x31	; 49
    2346:	41 f5       	brne	.+80     	; 0x2398 <main+0x1a02>
							{
								led_R3=ON;
    2348:	81 e0       	ldi	r24, 0x01	; 1
    234a:	80 93 37 03 	sts	0x0337, r24	; 0x800337 <led_R3>
								SPI_master_transmit_and_receive_data(ROOM3_MENU);
    234e:	83 e3       	ldi	r24, 0x33	; 51
    2350:	0e 94 e5 12 	call	0x25ca	; 0x25ca <SPI_master_transmit_and_receive_data>
    2354:	8f e7       	ldi	r24, 0x7F	; 127
    2356:	98 e3       	ldi	r25, 0x38	; 56
    2358:	21 e0       	ldi	r18, 0x01	; 1
    235a:	81 50       	subi	r24, 0x01	; 1
    235c:	90 40       	sbci	r25, 0x00	; 0
    235e:	20 40       	sbci	r18, 0x00	; 0
    2360:	e1 f7       	brne	.-8      	; 0x235a <main+0x19c4>
    2362:	00 c0       	rjmp	.+0      	; 0x2364 <main+0x19ce>
    2364:	00 00       	nop
								_delay_ms(50);
								SPI_master_transmit_and_receive_data(LED);
    2366:	81 e3       	ldi	r24, 0x31	; 49
    2368:	0e 94 e5 12 	call	0x25ca	; 0x25ca <SPI_master_transmit_and_receive_data>
    236c:	8f e7       	ldi	r24, 0x7F	; 127
    236e:	98 e3       	ldi	r25, 0x38	; 56
    2370:	21 e0       	ldi	r18, 0x01	; 1
    2372:	81 50       	subi	r24, 0x01	; 1
    2374:	90 40       	sbci	r25, 0x00	; 0
    2376:	20 40       	sbci	r18, 0x00	; 0
    2378:	e1 f7       	brne	.-8      	; 0x2372 <main+0x19dc>
    237a:	00 c0       	rjmp	.+0      	; 0x237c <main+0x19e6>
    237c:	00 00       	nop
								_delay_ms(50);
								SPI_master_transmit_and_receive_data(ON_STATUS);
    237e:	81 e3       	ldi	r24, 0x31	; 49
    2380:	0e 94 e5 12 	call	0x25ca	; 0x25ca <SPI_master_transmit_and_receive_data>
    2384:	8f e7       	ldi	r24, 0x7F	; 127
    2386:	98 e3       	ldi	r25, 0x38	; 56
    2388:	21 e0       	ldi	r18, 0x01	; 1
    238a:	81 50       	subi	r24, 0x01	; 1
    238c:	90 40       	sbci	r25, 0x00	; 0
    238e:	20 40       	sbci	r18, 0x00	; 0
    2390:	e1 f7       	brne	.-8      	; 0x238a <main+0x19f4>
    2392:	00 c0       	rjmp	.+0      	; 0x2394 <main+0x19fe>
    2394:	00 00       	nop
    2396:	2c c0       	rjmp	.+88     	; 0x23f0 <main+0x1a5a>
								_delay_ms(50);
							}
							else if (OFF_STATUS==led_status)
    2398:	82 33       	cpi	r24, 0x32	; 50
    239a:	39 f5       	brne	.+78     	; 0x23ea <main+0x1a54>
							{
								led_R3=OFF;
    239c:	10 92 37 03 	sts	0x0337, r1	; 0x800337 <led_R3>
								SPI_master_transmit_and_receive_data(ROOM3_MENU);
    23a0:	83 e3       	ldi	r24, 0x33	; 51
    23a2:	0e 94 e5 12 	call	0x25ca	; 0x25ca <SPI_master_transmit_and_receive_data>
    23a6:	8f e7       	ldi	r24, 0x7F	; 127
    23a8:	98 e3       	ldi	r25, 0x38	; 56
    23aa:	21 e0       	ldi	r18, 0x01	; 1
    23ac:	81 50       	subi	r24, 0x01	; 1
    23ae:	90 40       	sbci	r25, 0x00	; 0
    23b0:	20 40       	sbci	r18, 0x00	; 0
    23b2:	e1 f7       	brne	.-8      	; 0x23ac <main+0x1a16>
    23b4:	00 c0       	rjmp	.+0      	; 0x23b6 <main+0x1a20>
    23b6:	00 00       	nop
								_delay_ms(50);
								SPI_master_transmit_and_receive_data(LED);
    23b8:	81 e3       	ldi	r24, 0x31	; 49
    23ba:	0e 94 e5 12 	call	0x25ca	; 0x25ca <SPI_master_transmit_and_receive_data>
    23be:	8f e7       	ldi	r24, 0x7F	; 127
    23c0:	98 e3       	ldi	r25, 0x38	; 56
    23c2:	21 e0       	ldi	r18, 0x01	; 1
    23c4:	81 50       	subi	r24, 0x01	; 1
    23c6:	90 40       	sbci	r25, 0x00	; 0
    23c8:	20 40       	sbci	r18, 0x00	; 0
    23ca:	e1 f7       	brne	.-8      	; 0x23c4 <main+0x1a2e>
    23cc:	00 c0       	rjmp	.+0      	; 0x23ce <main+0x1a38>
    23ce:	00 00       	nop
								_delay_ms(50);
								SPI_master_transmit_and_receive_data(OFF_STATUS);
    23d0:	82 e3       	ldi	r24, 0x32	; 50
    23d2:	0e 94 e5 12 	call	0x25ca	; 0x25ca <SPI_master_transmit_and_receive_data>
    23d6:	8f e7       	ldi	r24, 0x7F	; 127
    23d8:	98 e3       	ldi	r25, 0x38	; 56
    23da:	21 e0       	ldi	r18, 0x01	; 1
    23dc:	81 50       	subi	r24, 0x01	; 1
    23de:	90 40       	sbci	r25, 0x00	; 0
    23e0:	20 40       	sbci	r18, 0x00	; 0
    23e2:	e1 f7       	brne	.-8      	; 0x23dc <main+0x1a46>
    23e4:	00 c0       	rjmp	.+0      	; 0x23e6 <main+0x1a50>
    23e6:	00 00       	nop
    23e8:	03 c0       	rjmp	.+6      	; 0x23f0 <main+0x1a5a>
								_delay_ms(50);
							}
							else if (RET_STATUS==led_status)
    23ea:	80 33       	cpi	r24, 0x30	; 48
    23ec:	09 f4       	brne	.+2      	; 0x23f0 <main+0x1a5a>
    23ee:	9b c0       	rjmp	.+310    	; 0x2526 <main+0x1b90>
						LCD_send_string("      Room three");
						LCD_move_cursor(2,1);
						LCD_send_string("LED:");
						LCD_move_cursor(3,1);
						LCD_send_string("0-back 1-on 2-off");
						while(time_out<TIME_MAX)
    23f0:	80 91 31 03 	lds	r24, 0x0331	; 0x800331 <time_out>
    23f4:	90 91 32 03 	lds	r25, 0x0332	; 0x800332 <time_out+0x1>
    23f8:	a0 91 33 03 	lds	r26, 0x0333	; 0x800333 <time_out+0x2>
    23fc:	b0 91 34 03 	lds	r27, 0x0334	; 0x800334 <time_out+0x3>
    2400:	88 35       	cpi	r24, 0x58	; 88
    2402:	92 40       	sbci	r25, 0x02	; 2
    2404:	a1 05       	cpc	r26, r1
    2406:	b1 05       	cpc	r27, r1
    2408:	08 f4       	brcc	.+2      	; 0x240c <main+0x1a76>
    240a:	75 cf       	rjmp	.-278    	; 0x22f6 <main+0x1960>
    240c:	8c c0       	rjmp	.+280    	; 0x2526 <main+0x1b90>
							{
								break;
							}
						}
					}
					else if (ROOM4_MENU==menu)
    240e:	84 33       	cpi	r24, 0x34	; 52
    2410:	09 f0       	breq	.+2      	; 0x2414 <main+0x1a7e>
    2412:	87 c0       	rjmp	.+270    	; 0x2522 <main+0x1b8c>
					{
						LCD_clr_screen();
    2414:	0e 94 40 04 	call	0x880	; 0x880 <LCD_clr_screen>
						LCD_send_string("      Room four");
    2418:	8e e3       	ldi	r24, 0x3E	; 62
    241a:	92 e0       	ldi	r25, 0x02	; 2
    241c:	0e 94 33 04 	call	0x866	; 0x866 <LCD_send_string>
						LCD_move_cursor(2,1);
    2420:	61 e0       	ldi	r22, 0x01	; 1
    2422:	82 e0       	ldi	r24, 0x02	; 2
    2424:	0e 94 4a 04 	call	0x894	; 0x894 <LCD_move_cursor>
						LCD_send_string("LED:");
    2428:	88 e2       	ldi	r24, 0x28	; 40
    242a:	93 e0       	ldi	r25, 0x03	; 3
    242c:	0e 94 33 04 	call	0x866	; 0x866 <LCD_send_string>
						LCD_move_cursor(3,1);
    2430:	61 e0       	ldi	r22, 0x01	; 1
    2432:	83 e0       	ldi	r24, 0x03	; 3
    2434:	0e 94 4a 04 	call	0x894	; 0x894 <LCD_move_cursor>
						LCD_send_string("0-back 1-on 2-off");
    2438:	87 e0       	ldi	r24, 0x07	; 7
    243a:	92 e0       	ldi	r25, 0x02	; 2
    243c:	0e 94 33 04 	call	0x866	; 0x866 <LCD_send_string>
						while(time_out<TIME_MAX)
    2440:	61 c0       	rjmp	.+194    	; 0x2504 <main+0x1b6e>
						{
							if (led_R4==ON)
    2442:	80 91 39 03 	lds	r24, 0x0339	; 0x800339 <led_R4>
    2446:	81 30       	cpi	r24, 0x01	; 1
    2448:	89 f4       	brne	.+34     	; 0x246c <main+0x1ad6>
							{
								LCD_move_cursor(2,5);
    244a:	65 e0       	ldi	r22, 0x05	; 5
    244c:	82 e0       	ldi	r24, 0x02	; 2
    244e:	0e 94 4a 04 	call	0x894	; 0x894 <LCD_move_cursor>
								LCD_send_string("   ");
    2452:	8d ec       	ldi	r24, 0xCD	; 205
    2454:	92 e0       	ldi	r25, 0x02	; 2
    2456:	0e 94 33 04 	call	0x866	; 0x866 <LCD_send_string>
								LCD_move_cursor(2,5);
    245a:	65 e0       	ldi	r22, 0x05	; 5
    245c:	82 e0       	ldi	r24, 0x02	; 2
    245e:	0e 94 4a 04 	call	0x894	; 0x894 <LCD_move_cursor>
								LCD_send_string("on");
    2462:	81 ef       	ldi	r24, 0xF1	; 241
    2464:	92 e0       	ldi	r25, 0x02	; 2
    2466:	0e 94 33 04 	call	0x866	; 0x866 <LCD_send_string>
    246a:	10 c0       	rjmp	.+32     	; 0x248c <main+0x1af6>
							}
							else
							{
								LCD_move_cursor(2,5);
    246c:	65 e0       	ldi	r22, 0x05	; 5
    246e:	82 e0       	ldi	r24, 0x02	; 2
    2470:	0e 94 4a 04 	call	0x894	; 0x894 <LCD_move_cursor>
								LCD_send_string("   ");
    2474:	8d ec       	ldi	r24, 0xCD	; 205
    2476:	92 e0       	ldi	r25, 0x02	; 2
    2478:	0e 94 33 04 	call	0x866	; 0x866 <LCD_send_string>
								LCD_move_cursor(2,5);
    247c:	65 e0       	ldi	r22, 0x05	; 5
    247e:	82 e0       	ldi	r24, 0x02	; 2
    2480:	0e 94 4a 04 	call	0x894	; 0x894 <LCD_move_cursor>
								LCD_send_string("off");
    2484:	85 e1       	ldi	r24, 0x15	; 21
    2486:	92 e0       	ldi	r25, 0x02	; 2
    2488:	0e 94 33 04 	call	0x866	; 0x866 <LCD_send_string>
							}
							led_status=KEYBAD_user();
    248c:	0e 94 82 04 	call	0x904	; 0x904 <KEYBAD_user>
							if (ON_STATUS==led_status)
    2490:	81 33       	cpi	r24, 0x31	; 49
    2492:	41 f5       	brne	.+80     	; 0x24e4 <main+0x1b4e>
							{
								led_R4=ON;
    2494:	81 e0       	ldi	r24, 0x01	; 1
    2496:	80 93 39 03 	sts	0x0339, r24	; 0x800339 <led_R4>
								SPI_master_transmit_and_receive_data(ROOM4_MENU);
    249a:	84 e3       	ldi	r24, 0x34	; 52
    249c:	0e 94 e5 12 	call	0x25ca	; 0x25ca <SPI_master_transmit_and_receive_data>
    24a0:	8f e7       	ldi	r24, 0x7F	; 127
    24a2:	98 e3       	ldi	r25, 0x38	; 56
    24a4:	21 e0       	ldi	r18, 0x01	; 1
    24a6:	81 50       	subi	r24, 0x01	; 1
    24a8:	90 40       	sbci	r25, 0x00	; 0
    24aa:	20 40       	sbci	r18, 0x00	; 0
    24ac:	e1 f7       	brne	.-8      	; 0x24a6 <main+0x1b10>
    24ae:	00 c0       	rjmp	.+0      	; 0x24b0 <main+0x1b1a>
    24b0:	00 00       	nop
								_delay_ms(50);
								SPI_master_transmit_and_receive_data(LED);
    24b2:	81 e3       	ldi	r24, 0x31	; 49
    24b4:	0e 94 e5 12 	call	0x25ca	; 0x25ca <SPI_master_transmit_and_receive_data>
    24b8:	8f e7       	ldi	r24, 0x7F	; 127
    24ba:	98 e3       	ldi	r25, 0x38	; 56
    24bc:	21 e0       	ldi	r18, 0x01	; 1
    24be:	81 50       	subi	r24, 0x01	; 1
    24c0:	90 40       	sbci	r25, 0x00	; 0
    24c2:	20 40       	sbci	r18, 0x00	; 0
    24c4:	e1 f7       	brne	.-8      	; 0x24be <main+0x1b28>
    24c6:	00 c0       	rjmp	.+0      	; 0x24c8 <main+0x1b32>
    24c8:	00 00       	nop
								_delay_ms(50);
								SPI_master_transmit_and_receive_data(ON_STATUS);
    24ca:	81 e3       	ldi	r24, 0x31	; 49
    24cc:	0e 94 e5 12 	call	0x25ca	; 0x25ca <SPI_master_transmit_and_receive_data>
    24d0:	8f e7       	ldi	r24, 0x7F	; 127
    24d2:	98 e3       	ldi	r25, 0x38	; 56
    24d4:	21 e0       	ldi	r18, 0x01	; 1
    24d6:	81 50       	subi	r24, 0x01	; 1
    24d8:	90 40       	sbci	r25, 0x00	; 0
    24da:	20 40       	sbci	r18, 0x00	; 0
    24dc:	e1 f7       	brne	.-8      	; 0x24d6 <main+0x1b40>
    24de:	00 c0       	rjmp	.+0      	; 0x24e0 <main+0x1b4a>
    24e0:	00 00       	nop
    24e2:	10 c0       	rjmp	.+32     	; 0x2504 <main+0x1b6e>
								_delay_ms(50);
							}
							else if (OFF_STATUS==led_status)
    24e4:	82 33       	cpi	r24, 0x32	; 50
    24e6:	61 f4       	brne	.+24     	; 0x2500 <main+0x1b6a>
							{
								led_R4=OFF;
    24e8:	10 92 39 03 	sts	0x0339, r1	; 0x800339 <led_R4>
								SPI_master_transmit_and_receive_data(ROOM4_MENU);
    24ec:	84 e3       	ldi	r24, 0x34	; 52
    24ee:	0e 94 e5 12 	call	0x25ca	; 0x25ca <SPI_master_transmit_and_receive_data>
								SPI_master_transmit_and_receive_data(LED);
    24f2:	81 e3       	ldi	r24, 0x31	; 49
    24f4:	0e 94 e5 12 	call	0x25ca	; 0x25ca <SPI_master_transmit_and_receive_data>
								SPI_master_transmit_and_receive_data(OFF_STATUS);
    24f8:	82 e3       	ldi	r24, 0x32	; 50
    24fa:	0e 94 e5 12 	call	0x25ca	; 0x25ca <SPI_master_transmit_and_receive_data>
    24fe:	02 c0       	rjmp	.+4      	; 0x2504 <main+0x1b6e>
							}
							else if (RET_STATUS==led_status)
    2500:	80 33       	cpi	r24, 0x30	; 48
    2502:	89 f0       	breq	.+34     	; 0x2526 <main+0x1b90>
						LCD_send_string("      Room four");
						LCD_move_cursor(2,1);
						LCD_send_string("LED:");
						LCD_move_cursor(3,1);
						LCD_send_string("0-back 1-on 2-off");
						while(time_out<TIME_MAX)
    2504:	80 91 31 03 	lds	r24, 0x0331	; 0x800331 <time_out>
    2508:	90 91 32 03 	lds	r25, 0x0332	; 0x800332 <time_out+0x1>
    250c:	a0 91 33 03 	lds	r26, 0x0333	; 0x800333 <time_out+0x2>
    2510:	b0 91 34 03 	lds	r27, 0x0334	; 0x800334 <time_out+0x3>
    2514:	88 35       	cpi	r24, 0x58	; 88
    2516:	92 40       	sbci	r25, 0x02	; 2
    2518:	a1 05       	cpc	r26, r1
    251a:	b1 05       	cpc	r27, r1
    251c:	08 f4       	brcc	.+2      	; 0x2520 <main+0x1b8a>
    251e:	91 cf       	rjmp	.-222    	; 0x2442 <main+0x1aac>
    2520:	02 c0       	rjmp	.+4      	; 0x2526 <main+0x1b90>
							{
								break;
							}
						}
					}
					else if (RET_STATUS==menu)
    2522:	80 33       	cpi	r24, 0x30	; 48
    2524:	71 f0       	breq	.+28     	; 0x2542 <main+0x1bac>
				break;
			}
			case GUEST :
			{
				LED_turn_on(GUEST_PORT,GUEST_PIN);
				while(time_out<TIME_MAX)
    2526:	80 91 31 03 	lds	r24, 0x0331	; 0x800331 <time_out>
    252a:	90 91 32 03 	lds	r25, 0x0332	; 0x800332 <time_out+0x1>
    252e:	a0 91 33 03 	lds	r26, 0x0333	; 0x800333 <time_out+0x2>
    2532:	b0 91 34 03 	lds	r27, 0x0334	; 0x800334 <time_out+0x3>
    2536:	88 35       	cpi	r24, 0x58	; 88
    2538:	92 40       	sbci	r25, 0x02	; 2
    253a:	a1 05       	cpc	r26, r1
    253c:	b1 05       	cpc	r27, r1
    253e:	08 f4       	brcc	.+2      	; 0x2542 <main+0x1bac>
    2540:	55 cd       	rjmp	.-1366   	; 0x1fec <main+0x1656>
					else if (RET_STATUS==menu)
					{
						break;
					}
				}
				LED_turn_off(GUEST_PORT,GUEST_PIN);
    2542:	61 e0       	ldi	r22, 0x01	; 1
    2544:	82 e4       	ldi	r24, 0x42	; 66
    2546:	0e 94 7e 04 	call	0x8fc	; 0x8fc <LED_turn_off>
				break;
    254a:	0c 94 2b 06 	jmp	0xc56	; 0xc56 <main+0x2c0>

0000254e <__vector_10>:
	return ret_val;
}


ISR(TIMER0_COMP_vect)
{
    254e:	1f 92       	push	r1
    2550:	0f 92       	push	r0
    2552:	0f b6       	in	r0, 0x3f	; 63
    2554:	0f 92       	push	r0
    2556:	11 24       	eor	r1, r1
    2558:	8f 93       	push	r24
    255a:	9f 93       	push	r25
    255c:	af 93       	push	r26
    255e:	bf 93       	push	r27
	time_out++;
    2560:	80 91 31 03 	lds	r24, 0x0331	; 0x800331 <time_out>
    2564:	90 91 32 03 	lds	r25, 0x0332	; 0x800332 <time_out+0x1>
    2568:	a0 91 33 03 	lds	r26, 0x0333	; 0x800333 <time_out+0x2>
    256c:	b0 91 34 03 	lds	r27, 0x0334	; 0x800334 <time_out+0x3>
    2570:	01 96       	adiw	r24, 0x01	; 1
    2572:	a1 1d       	adc	r26, r1
    2574:	b1 1d       	adc	r27, r1
    2576:	80 93 31 03 	sts	0x0331, r24	; 0x800331 <time_out>
    257a:	90 93 32 03 	sts	0x0332, r25	; 0x800332 <time_out+0x1>
    257e:	a0 93 33 03 	sts	0x0333, r26	; 0x800333 <time_out+0x2>
    2582:	b0 93 34 03 	sts	0x0334, r27	; 0x800334 <time_out+0x3>
    2586:	bf 91       	pop	r27
    2588:	af 91       	pop	r26
    258a:	9f 91       	pop	r25
    258c:	8f 91       	pop	r24
    258e:	0f 90       	pop	r0
    2590:	0f be       	out	0x3f, r0	; 63
    2592:	0f 90       	pop	r0
    2594:	1f 90       	pop	r1
    2596:	18 95       	reti

00002598 <SPI_master_init>:
	//SS,MOSI,SCK AS input and MISO AS output
	SET_BIT(DDRB,PB6);  // MISO as output
	// Enable SPI
	SET_BIT(SPCR,SPE);
	//Enable slave mode
	CLR_BIT(SPCR,MSTR);
    2598:	87 b3       	in	r24, 0x17	; 23
    259a:	80 61       	ori	r24, 0x10	; 16
    259c:	87 bb       	out	0x17, r24	; 23
    259e:	87 b3       	in	r24, 0x17	; 23
    25a0:	80 62       	ori	r24, 0x20	; 32
    25a2:	87 bb       	out	0x17, r24	; 23
    25a4:	87 b3       	in	r24, 0x17	; 23
    25a6:	80 68       	ori	r24, 0x80	; 128
    25a8:	87 bb       	out	0x17, r24	; 23
    25aa:	88 b3       	in	r24, 0x18	; 24
    25ac:	80 61       	ori	r24, 0x10	; 16
    25ae:	88 bb       	out	0x18, r24	; 24
    25b0:	8d b1       	in	r24, 0x0d	; 13
    25b2:	80 64       	ori	r24, 0x40	; 64
    25b4:	8d b9       	out	0x0d, r24	; 13
    25b6:	8d b1       	in	r24, 0x0d	; 13
    25b8:	80 61       	ori	r24, 0x10	; 16
    25ba:	8d b9       	out	0x0d, r24	; 13
    25bc:	8d b1       	in	r24, 0x0d	; 13
    25be:	81 60       	ori	r24, 0x01	; 1
    25c0:	8d b9       	out	0x0d, r24	; 13
    25c2:	8d b1       	in	r24, 0x0d	; 13
    25c4:	8d 7f       	andi	r24, 0xFD	; 253
    25c6:	8d b9       	out	0x0d, r24	; 13
    25c8:	08 95       	ret

000025ca <SPI_master_transmit_and_receive_data>:
}

unsigned char SPI_master_transmit_and_receive_data(unsigned char data)
{
	 // active slave
	CLR_BIT(PORTB,PB4);
    25ca:	98 b3       	in	r25, 0x18	; 24
    25cc:	9f 7e       	andi	r25, 0xEF	; 239
    25ce:	98 bb       	out	0x18, r25	; 24
	//put data on SPDR
	SPDR=data;
    25d0:	8f b9       	out	0x0f, r24	; 15
	// wait data transfer is complete
	while(READ_BIT(SPSR,SPIF)==0);
    25d2:	77 9b       	sbis	0x0e, 7	; 14
    25d4:	fe cf       	rjmp	.-4      	; 0x25d2 <SPI_master_transmit_and_receive_data+0x8>
	//read data on SPDR
	return SPDR;	
    25d6:	8f b1       	in	r24, 0x0f	; 15
}
    25d8:	08 95       	ret

000025da <TIMER0_CTC_init_with_interrupt>:


void TIMER0_CTC_init_with_interrupt(void)
{
	//determine CTC mode
	CLR_BIT(TCCR0,WGM00);
    25da:	83 b7       	in	r24, 0x33	; 51
    25dc:	8f 7b       	andi	r24, 0xBF	; 191
    25de:	83 bf       	out	0x33, r24	; 51
	SET_BIT(TCCR0,WGM01);
    25e0:	83 b7       	in	r24, 0x33	; 51
    25e2:	88 60       	ori	r24, 0x08	; 8
    25e4:	83 bf       	out	0x33, r24	; 51
	//load value in OCR0 ,to compare match
	OCR0=80;
    25e6:	80 e5       	ldi	r24, 0x50	; 80
    25e8:	8c bf       	out	0x3c, r24	; 60
	//determine prescaler=1024, timer0_clock=(cpu_clock/prescaler)
	SET_BIT(TCCR0,CS00);
    25ea:	83 b7       	in	r24, 0x33	; 51
    25ec:	81 60       	ori	r24, 0x01	; 1
    25ee:	83 bf       	out	0x33, r24	; 51
	CLR_BIT(TCCR0,CS01);
    25f0:	83 b7       	in	r24, 0x33	; 51
    25f2:	8d 7f       	andi	r24, 0xFD	; 253
    25f4:	83 bf       	out	0x33, r24	; 51
	SET_BIT(TCCR0,CS02);
    25f6:	83 b7       	in	r24, 0x33	; 51
    25f8:	84 60       	ori	r24, 0x04	; 4
    25fa:	83 bf       	out	0x33, r24	; 51
	//enable interrupt to compare match
	sei();
    25fc:	78 94       	sei
	SET_BIT(TIMSK,OCIE0);
    25fe:	89 b7       	in	r24, 0x39	; 57
    2600:	82 60       	ori	r24, 0x02	; 2
    2602:	89 bf       	out	0x39, r24	; 57
    2604:	08 95       	ret

00002606 <__tablejump2__>:
    2606:	ee 0f       	add	r30, r30
    2608:	ff 1f       	adc	r31, r31
    260a:	05 90       	lpm	r0, Z+
    260c:	f4 91       	lpm	r31, Z
    260e:	e0 2d       	mov	r30, r0
    2610:	09 94       	ijmp

00002612 <_exit>:
    2612:	f8 94       	cli

00002614 <__stop_program>:
    2614:	ff cf       	rjmp	.-2      	; 0x2614 <__stop_program>
